
./obfuscated_remove_literal_statements_secure_logic.bin:     file format elf64-x86-64
./obfuscated_remove_literal_statements_secure_logic.bin
architecture: i386:x86-64, flags 0x00000150:
HAS_SYMS, DYNAMIC, D_PAGED
start address 0x0000000000003280

Program Header:
    PHDR off    0x0000000000000040 vaddr 0x0000000000000040 paddr 0x0000000000000040 align 2**3
         filesz 0x00000000000002d8 memsz 0x00000000000002d8 flags r--
  INTERP off    0x0000000000000318 vaddr 0x0000000000000318 paddr 0x0000000000000318 align 2**0
         filesz 0x000000000000001c memsz 0x000000000000001c flags r--
    LOAD off    0x0000000000000000 vaddr 0x0000000000000000 paddr 0x0000000000000000 align 2**12
         filesz 0x0000000000001630 memsz 0x0000000000001630 flags r--
    LOAD off    0x0000000000002000 vaddr 0x0000000000002000 paddr 0x0000000000002000 align 2**12
         filesz 0x000000000001bd29 memsz 0x000000000001bd29 flags r-x
    LOAD off    0x000000000001e000 vaddr 0x000000000001e000 paddr 0x000000000001e000 align 2**12
         filesz 0x0000000000007cf8 memsz 0x0000000000007cf8 flags r--
    LOAD off    0x0000000000026b90 vaddr 0x0000000000027b90 paddr 0x0000000000027b90 align 2**12
         filesz 0x0000000000000480 memsz 0x0000000000010dd0 flags rw-
 DYNAMIC off    0x0000000000026bb0 vaddr 0x0000000000027bb0 paddr 0x0000000000027bb0 align 2**3
         filesz 0x00000000000001f0 memsz 0x00000000000001f0 flags rw-
    NOTE off    0x0000000000000338 vaddr 0x0000000000000338 paddr 0x0000000000000338 align 2**3
         filesz 0x0000000000000030 memsz 0x0000000000000030 flags r--
    NOTE off    0x0000000000000368 vaddr 0x0000000000000368 paddr 0x0000000000000368 align 2**2
         filesz 0x0000000000000044 memsz 0x0000000000000044 flags r--
0x6474e553 off    0x0000000000000338 vaddr 0x0000000000000338 paddr 0x0000000000000338 align 2**3
         filesz 0x0000000000000030 memsz 0x0000000000000030 flags r--
EH_FRAME off    0x0000000000022178 vaddr 0x0000000000022178 paddr 0x0000000000022178 align 2**2
         filesz 0x000000000000088c memsz 0x000000000000088c flags r--
   STACK off    0x0000000000000000 vaddr 0x0000000000000000 paddr 0x0000000000000000 align 2**4
         filesz 0x0000000000000000 memsz 0x0000000000000000 flags rw-
   RELRO off    0x0000000000026b90 vaddr 0x0000000000027b90 paddr 0x0000000000027b90 align 2**0
         filesz 0x0000000000000470 memsz 0x0000000000000470 flags r--

Dynamic Section:
  NEEDED               libc.so.6
  INIT                 0x0000000000002000
  FINI                 0x000000000001dd1c
  INIT_ARRAY           0x0000000000027b90
  INIT_ARRAYSZ         0x0000000000000008
  FINI_ARRAY           0x0000000000027b98
  FINI_ARRAYSZ         0x0000000000000008
  GNU_HASH             0x00000000000003b0
  STRTAB               0x0000000000000ae0
  SYMTAB               0x00000000000003d8
  STRSZ                0x00000000000002d0
  SYMENT               0x0000000000000018
  DEBUG                0x0000000000000000
  PLTGOT               0x0000000000027da0
  PLTRELSZ             0x0000000000000660
  PLTREL               0x0000000000000007
  JMPREL               0x0000000000000fd0
  RELA                 0x0000000000000ec8
  RELASZ               0x0000000000000108
  RELAENT              0x0000000000000018
  FLAGS                0x0000000000000008
  FLAGS_1              0x0000000008000001
  VERNEED              0x0000000000000e48
  VERNEEDNUM           0x0000000000000001
  VERSYM               0x0000000000000db0
  RELACOUNT            0x0000000000000005

Version References:
  required from libc.so.6:
    0x0d696913 0x00 08 GLIBC_2.3
    0x06969194 0x00 07 GLIBC_2.14
    0x069691b3 0x00 06 GLIBC_2.33
    0x0d696914 0x00 05 GLIBC_2.4
    0x069691b4 0x00 04 GLIBC_2.34
    0x09691974 0x00 03 GLIBC_2.3.4
    0x09691a75 0x00 02 GLIBC_2.2.5

Sections:
Idx Name          Size      VMA               LMA               File off  Algn
  0 .interp       0000001c  0000000000000318  0000000000000318  00000318  2**0
                  CONTENTS, ALLOC, LOAD, READONLY, DATA
  1 .note.gnu.property 00000030  0000000000000338  0000000000000338  00000338  2**3
                  CONTENTS, ALLOC, LOAD, READONLY, DATA
  2 .note.gnu.build-id 00000024  0000000000000368  0000000000000368  00000368  2**2
                  CONTENTS, ALLOC, LOAD, READONLY, DATA
  3 .note.ABI-tag 00000020  000000000000038c  000000000000038c  0000038c  2**2
                  CONTENTS, ALLOC, LOAD, READONLY, DATA
  4 .gnu.hash     00000028  00000000000003b0  00000000000003b0  000003b0  2**3
                  CONTENTS, ALLOC, LOAD, READONLY, DATA
  5 .dynsym       00000708  00000000000003d8  00000000000003d8  000003d8  2**3
                  CONTENTS, ALLOC, LOAD, READONLY, DATA
  6 .dynstr       000002d0  0000000000000ae0  0000000000000ae0  00000ae0  2**0
                  CONTENTS, ALLOC, LOAD, READONLY, DATA
  7 .gnu.version  00000096  0000000000000db0  0000000000000db0  00000db0  2**1
                  CONTENTS, ALLOC, LOAD, READONLY, DATA
  8 .gnu.version_r 00000080  0000000000000e48  0000000000000e48  00000e48  2**3
                  CONTENTS, ALLOC, LOAD, READONLY, DATA
  9 .rela.dyn     00000108  0000000000000ec8  0000000000000ec8  00000ec8  2**3
                  CONTENTS, ALLOC, LOAD, READONLY, DATA
 10 .rela.plt     00000660  0000000000000fd0  0000000000000fd0  00000fd0  2**3
                  CONTENTS, ALLOC, LOAD, READONLY, DATA
 11 .init         0000001b  0000000000002000  0000000000002000  00002000  2**2
                  CONTENTS, ALLOC, LOAD, READONLY, CODE
 12 .plt          00000450  0000000000002020  0000000000002020  00002020  2**4
                  CONTENTS, ALLOC, LOAD, READONLY, CODE
 13 .plt.got      00000010  0000000000002470  0000000000002470  00002470  2**4
                  CONTENTS, ALLOC, LOAD, READONLY, CODE
 14 .plt.sec      00000440  0000000000002480  0000000000002480  00002480  2**4
                  CONTENTS, ALLOC, LOAD, READONLY, CODE
 15 .text         0001b459  00000000000028c0  00000000000028c0  000028c0  2**5
                  CONTENTS, ALLOC, LOAD, READONLY, CODE
 16 .fini         0000000d  000000000001dd1c  000000000001dd1c  0001dd1c  2**2
                  CONTENTS, ALLOC, LOAD, READONLY, CODE
 17 .rodata       00004178  000000000001e000  000000000001e000  0001e000  2**5
                  CONTENTS, ALLOC, LOAD, READONLY, DATA
 18 .eh_frame_hdr 0000088c  0000000000022178  0000000000022178  00022178  2**2
                  CONTENTS, ALLOC, LOAD, READONLY, DATA
 19 .eh_frame     000032f0  0000000000022a08  0000000000022a08  00022a08  2**3
                  CONTENTS, ALLOC, LOAD, READONLY, DATA
 20 .init_array   00000008  0000000000027b90  0000000000027b90  00026b90  2**3
                  CONTENTS, ALLOC, LOAD, DATA
 21 .fini_array   00000008  0000000000027b98  0000000000027b98  00026b98  2**3
                  CONTENTS, ALLOC, LOAD, DATA
 22 .data.rel.ro  00000010  0000000000027ba0  0000000000027ba0  00026ba0  2**4
                  CONTENTS, ALLOC, LOAD, DATA
 23 .dynamic      000001f0  0000000000027bb0  0000000000027bb0  00026bb0  2**3
                  CONTENTS, ALLOC, LOAD, DATA
 24 .got          00000260  0000000000027da0  0000000000027da0  00026da0  2**3
                  CONTENTS, ALLOC, LOAD, DATA
 25 .data         00000010  0000000000028000  0000000000028000  00027000  2**3
                  CONTENTS, ALLOC, LOAD, DATA
 26 .bss          00010940  0000000000028020  0000000000028020  00027010  2**5
                  ALLOC
 27 .comment      0000002d  0000000000000000  0000000000000000  00027010  2**0
                  CONTENTS, READONLY
SYMBOL TABLE:
no symbols



Disassembly of section .init:

0000000000002000 <.init>:
    2000:	f3 0f 1e fa          	endbr64 
    2004:	48 83 ec 08          	sub    $0x8,%rsp
    2008:	48 8b 05 d9 5f 02 00 	mov    0x25fd9(%rip),%rax        # 27fe8 <__ctype_b_loc@plt+0x25738>
    200f:	48 85 c0             	test   %rax,%rax
    2012:	74 02                	je     2016 <__cxa_finalize@plt-0x45a>
    2014:	ff d0                	call   *%rax
    2016:	48 83 c4 08          	add    $0x8,%rsp
    201a:	c3                   	ret    

Disassembly of section .plt:

0000000000002020 <.plt>:
    2020:	ff 35 82 5d 02 00    	push   0x25d82(%rip)        # 27da8 <__ctype_b_loc@plt+0x254f8>
    2026:	f2 ff 25 83 5d 02 00 	bnd jmp *0x25d83(%rip)        # 27db0 <__ctype_b_loc@plt+0x25500>
    202d:	0f 1f 00             	nopl   (%rax)
    2030:	f3 0f 1e fa          	endbr64 
    2034:	68 00 00 00 00       	push   $0x0
    2039:	f2 e9 e1 ff ff ff    	bnd jmp 2020 <__cxa_finalize@plt-0x450>
    203f:	90                   	nop
    2040:	f3 0f 1e fa          	endbr64 
    2044:	68 01 00 00 00       	push   $0x1
    2049:	f2 e9 d1 ff ff ff    	bnd jmp 2020 <__cxa_finalize@plt-0x450>
    204f:	90                   	nop
    2050:	f3 0f 1e fa          	endbr64 
    2054:	68 02 00 00 00       	push   $0x2
    2059:	f2 e9 c1 ff ff ff    	bnd jmp 2020 <__cxa_finalize@plt-0x450>
    205f:	90                   	nop
    2060:	f3 0f 1e fa          	endbr64 
    2064:	68 03 00 00 00       	push   $0x3
    2069:	f2 e9 b1 ff ff ff    	bnd jmp 2020 <__cxa_finalize@plt-0x450>
    206f:	90                   	nop
    2070:	f3 0f 1e fa          	endbr64 
    2074:	68 04 00 00 00       	push   $0x4
    2079:	f2 e9 a1 ff ff ff    	bnd jmp 2020 <__cxa_finalize@plt-0x450>
    207f:	90                   	nop
    2080:	f3 0f 1e fa          	endbr64 
    2084:	68 05 00 00 00       	push   $0x5
    2089:	f2 e9 91 ff ff ff    	bnd jmp 2020 <__cxa_finalize@plt-0x450>
    208f:	90                   	nop
    2090:	f3 0f 1e fa          	endbr64 
    2094:	68 06 00 00 00       	push   $0x6
    2099:	f2 e9 81 ff ff ff    	bnd jmp 2020 <__cxa_finalize@plt-0x450>
    209f:	90                   	nop
    20a0:	f3 0f 1e fa          	endbr64 
    20a4:	68 07 00 00 00       	push   $0x7
    20a9:	f2 e9 71 ff ff ff    	bnd jmp 2020 <__cxa_finalize@plt-0x450>
    20af:	90                   	nop
    20b0:	f3 0f 1e fa          	endbr64 
    20b4:	68 08 00 00 00       	push   $0x8
    20b9:	f2 e9 61 ff ff ff    	bnd jmp 2020 <__cxa_finalize@plt-0x450>
    20bf:	90                   	nop
    20c0:	f3 0f 1e fa          	endbr64 
    20c4:	68 09 00 00 00       	push   $0x9
    20c9:	f2 e9 51 ff ff ff    	bnd jmp 2020 <__cxa_finalize@plt-0x450>
    20cf:	90                   	nop
    20d0:	f3 0f 1e fa          	endbr64 
    20d4:	68 0a 00 00 00       	push   $0xa
    20d9:	f2 e9 41 ff ff ff    	bnd jmp 2020 <__cxa_finalize@plt-0x450>
    20df:	90                   	nop
    20e0:	f3 0f 1e fa          	endbr64 
    20e4:	68 0b 00 00 00       	push   $0xb
    20e9:	f2 e9 31 ff ff ff    	bnd jmp 2020 <__cxa_finalize@plt-0x450>
    20ef:	90                   	nop
    20f0:	f3 0f 1e fa          	endbr64 
    20f4:	68 0c 00 00 00       	push   $0xc
    20f9:	f2 e9 21 ff ff ff    	bnd jmp 2020 <__cxa_finalize@plt-0x450>
    20ff:	90                   	nop
    2100:	f3 0f 1e fa          	endbr64 
    2104:	68 0d 00 00 00       	push   $0xd
    2109:	f2 e9 11 ff ff ff    	bnd jmp 2020 <__cxa_finalize@plt-0x450>
    210f:	90                   	nop
    2110:	f3 0f 1e fa          	endbr64 
    2114:	68 0e 00 00 00       	push   $0xe
    2119:	f2 e9 01 ff ff ff    	bnd jmp 2020 <__cxa_finalize@plt-0x450>
    211f:	90                   	nop
    2120:	f3 0f 1e fa          	endbr64 
    2124:	68 0f 00 00 00       	push   $0xf
    2129:	f2 e9 f1 fe ff ff    	bnd jmp 2020 <__cxa_finalize@plt-0x450>
    212f:	90                   	nop
    2130:	f3 0f 1e fa          	endbr64 
    2134:	68 10 00 00 00       	push   $0x10
    2139:	f2 e9 e1 fe ff ff    	bnd jmp 2020 <__cxa_finalize@plt-0x450>
    213f:	90                   	nop
    2140:	f3 0f 1e fa          	endbr64 
    2144:	68 11 00 00 00       	push   $0x11
    2149:	f2 e9 d1 fe ff ff    	bnd jmp 2020 <__cxa_finalize@plt-0x450>
    214f:	90                   	nop
    2150:	f3 0f 1e fa          	endbr64 
    2154:	68 12 00 00 00       	push   $0x12
    2159:	f2 e9 c1 fe ff ff    	bnd jmp 2020 <__cxa_finalize@plt-0x450>
    215f:	90                   	nop
    2160:	f3 0f 1e fa          	endbr64 
    2164:	68 13 00 00 00       	push   $0x13
    2169:	f2 e9 b1 fe ff ff    	bnd jmp 2020 <__cxa_finalize@plt-0x450>
    216f:	90                   	nop
    2170:	f3 0f 1e fa          	endbr64 
    2174:	68 14 00 00 00       	push   $0x14
    2179:	f2 e9 a1 fe ff ff    	bnd jmp 2020 <__cxa_finalize@plt-0x450>
    217f:	90                   	nop
    2180:	f3 0f 1e fa          	endbr64 
    2184:	68 15 00 00 00       	push   $0x15
    2189:	f2 e9 91 fe ff ff    	bnd jmp 2020 <__cxa_finalize@plt-0x450>
    218f:	90                   	nop
    2190:	f3 0f 1e fa          	endbr64 
    2194:	68 16 00 00 00       	push   $0x16
    2199:	f2 e9 81 fe ff ff    	bnd jmp 2020 <__cxa_finalize@plt-0x450>
    219f:	90                   	nop
    21a0:	f3 0f 1e fa          	endbr64 
    21a4:	68 17 00 00 00       	push   $0x17
    21a9:	f2 e9 71 fe ff ff    	bnd jmp 2020 <__cxa_finalize@plt-0x450>
    21af:	90                   	nop
    21b0:	f3 0f 1e fa          	endbr64 
    21b4:	68 18 00 00 00       	push   $0x18
    21b9:	f2 e9 61 fe ff ff    	bnd jmp 2020 <__cxa_finalize@plt-0x450>
    21bf:	90                   	nop
    21c0:	f3 0f 1e fa          	endbr64 
    21c4:	68 19 00 00 00       	push   $0x19
    21c9:	f2 e9 51 fe ff ff    	bnd jmp 2020 <__cxa_finalize@plt-0x450>
    21cf:	90                   	nop
    21d0:	f3 0f 1e fa          	endbr64 
    21d4:	68 1a 00 00 00       	push   $0x1a
    21d9:	f2 e9 41 fe ff ff    	bnd jmp 2020 <__cxa_finalize@plt-0x450>
    21df:	90                   	nop
    21e0:	f3 0f 1e fa          	endbr64 
    21e4:	68 1b 00 00 00       	push   $0x1b
    21e9:	f2 e9 31 fe ff ff    	bnd jmp 2020 <__cxa_finalize@plt-0x450>
    21ef:	90                   	nop
    21f0:	f3 0f 1e fa          	endbr64 
    21f4:	68 1c 00 00 00       	push   $0x1c
    21f9:	f2 e9 21 fe ff ff    	bnd jmp 2020 <__cxa_finalize@plt-0x450>
    21ff:	90                   	nop
    2200:	f3 0f 1e fa          	endbr64 
    2204:	68 1d 00 00 00       	push   $0x1d
    2209:	f2 e9 11 fe ff ff    	bnd jmp 2020 <__cxa_finalize@plt-0x450>
    220f:	90                   	nop
    2210:	f3 0f 1e fa          	endbr64 
    2214:	68 1e 00 00 00       	push   $0x1e
    2219:	f2 e9 01 fe ff ff    	bnd jmp 2020 <__cxa_finalize@plt-0x450>
    221f:	90                   	nop
    2220:	f3 0f 1e fa          	endbr64 
    2224:	68 1f 00 00 00       	push   $0x1f
    2229:	f2 e9 f1 fd ff ff    	bnd jmp 2020 <__cxa_finalize@plt-0x450>
    222f:	90                   	nop
    2230:	f3 0f 1e fa          	endbr64 
    2234:	68 20 00 00 00       	push   $0x20
    2239:	f2 e9 e1 fd ff ff    	bnd jmp 2020 <__cxa_finalize@plt-0x450>
    223f:	90                   	nop
    2240:	f3 0f 1e fa          	endbr64 
    2244:	68 21 00 00 00       	push   $0x21
    2249:	f2 e9 d1 fd ff ff    	bnd jmp 2020 <__cxa_finalize@plt-0x450>
    224f:	90                   	nop
    2250:	f3 0f 1e fa          	endbr64 
    2254:	68 22 00 00 00       	push   $0x22
    2259:	f2 e9 c1 fd ff ff    	bnd jmp 2020 <__cxa_finalize@plt-0x450>
    225f:	90                   	nop
    2260:	f3 0f 1e fa          	endbr64 
    2264:	68 23 00 00 00       	push   $0x23
    2269:	f2 e9 b1 fd ff ff    	bnd jmp 2020 <__cxa_finalize@plt-0x450>
    226f:	90                   	nop
    2270:	f3 0f 1e fa          	endbr64 
    2274:	68 24 00 00 00       	push   $0x24
    2279:	f2 e9 a1 fd ff ff    	bnd jmp 2020 <__cxa_finalize@plt-0x450>
    227f:	90                   	nop
    2280:	f3 0f 1e fa          	endbr64 
    2284:	68 25 00 00 00       	push   $0x25
    2289:	f2 e9 91 fd ff ff    	bnd jmp 2020 <__cxa_finalize@plt-0x450>
    228f:	90                   	nop
    2290:	f3 0f 1e fa          	endbr64 
    2294:	68 26 00 00 00       	push   $0x26
    2299:	f2 e9 81 fd ff ff    	bnd jmp 2020 <__cxa_finalize@plt-0x450>
    229f:	90                   	nop
    22a0:	f3 0f 1e fa          	endbr64 
    22a4:	68 27 00 00 00       	push   $0x27
    22a9:	f2 e9 71 fd ff ff    	bnd jmp 2020 <__cxa_finalize@plt-0x450>
    22af:	90                   	nop
    22b0:	f3 0f 1e fa          	endbr64 
    22b4:	68 28 00 00 00       	push   $0x28
    22b9:	f2 e9 61 fd ff ff    	bnd jmp 2020 <__cxa_finalize@plt-0x450>
    22bf:	90                   	nop
    22c0:	f3 0f 1e fa          	endbr64 
    22c4:	68 29 00 00 00       	push   $0x29
    22c9:	f2 e9 51 fd ff ff    	bnd jmp 2020 <__cxa_finalize@plt-0x450>
    22cf:	90                   	nop
    22d0:	f3 0f 1e fa          	endbr64 
    22d4:	68 2a 00 00 00       	push   $0x2a
    22d9:	f2 e9 41 fd ff ff    	bnd jmp 2020 <__cxa_finalize@plt-0x450>
    22df:	90                   	nop
    22e0:	f3 0f 1e fa          	endbr64 
    22e4:	68 2b 00 00 00       	push   $0x2b
    22e9:	f2 e9 31 fd ff ff    	bnd jmp 2020 <__cxa_finalize@plt-0x450>
    22ef:	90                   	nop
    22f0:	f3 0f 1e fa          	endbr64 
    22f4:	68 2c 00 00 00       	push   $0x2c
    22f9:	f2 e9 21 fd ff ff    	bnd jmp 2020 <__cxa_finalize@plt-0x450>
    22ff:	90                   	nop
    2300:	f3 0f 1e fa          	endbr64 
    2304:	68 2d 00 00 00       	push   $0x2d
    2309:	f2 e9 11 fd ff ff    	bnd jmp 2020 <__cxa_finalize@plt-0x450>
    230f:	90                   	nop
    2310:	f3 0f 1e fa          	endbr64 
    2314:	68 2e 00 00 00       	push   $0x2e
    2319:	f2 e9 01 fd ff ff    	bnd jmp 2020 <__cxa_finalize@plt-0x450>
    231f:	90                   	nop
    2320:	f3 0f 1e fa          	endbr64 
    2324:	68 2f 00 00 00       	push   $0x2f
    2329:	f2 e9 f1 fc ff ff    	bnd jmp 2020 <__cxa_finalize@plt-0x450>
    232f:	90                   	nop
    2330:	f3 0f 1e fa          	endbr64 
    2334:	68 30 00 00 00       	push   $0x30
    2339:	f2 e9 e1 fc ff ff    	bnd jmp 2020 <__cxa_finalize@plt-0x450>
    233f:	90                   	nop
    2340:	f3 0f 1e fa          	endbr64 
    2344:	68 31 00 00 00       	push   $0x31
    2349:	f2 e9 d1 fc ff ff    	bnd jmp 2020 <__cxa_finalize@plt-0x450>
    234f:	90                   	nop
    2350:	f3 0f 1e fa          	endbr64 
    2354:	68 32 00 00 00       	push   $0x32
    2359:	f2 e9 c1 fc ff ff    	bnd jmp 2020 <__cxa_finalize@plt-0x450>
    235f:	90                   	nop
    2360:	f3 0f 1e fa          	endbr64 
    2364:	68 33 00 00 00       	push   $0x33
    2369:	f2 e9 b1 fc ff ff    	bnd jmp 2020 <__cxa_finalize@plt-0x450>
    236f:	90                   	nop
    2370:	f3 0f 1e fa          	endbr64 
    2374:	68 34 00 00 00       	push   $0x34
    2379:	f2 e9 a1 fc ff ff    	bnd jmp 2020 <__cxa_finalize@plt-0x450>
    237f:	90                   	nop
    2380:	f3 0f 1e fa          	endbr64 
    2384:	68 35 00 00 00       	push   $0x35
    2389:	f2 e9 91 fc ff ff    	bnd jmp 2020 <__cxa_finalize@plt-0x450>
    238f:	90                   	nop
    2390:	f3 0f 1e fa          	endbr64 
    2394:	68 36 00 00 00       	push   $0x36
    2399:	f2 e9 81 fc ff ff    	bnd jmp 2020 <__cxa_finalize@plt-0x450>
    239f:	90                   	nop
    23a0:	f3 0f 1e fa          	endbr64 
    23a4:	68 37 00 00 00       	push   $0x37
    23a9:	f2 e9 71 fc ff ff    	bnd jmp 2020 <__cxa_finalize@plt-0x450>
    23af:	90                   	nop
    23b0:	f3 0f 1e fa          	endbr64 
    23b4:	68 38 00 00 00       	push   $0x38
    23b9:	f2 e9 61 fc ff ff    	bnd jmp 2020 <__cxa_finalize@plt-0x450>
    23bf:	90                   	nop
    23c0:	f3 0f 1e fa          	endbr64 
    23c4:	68 39 00 00 00       	push   $0x39
    23c9:	f2 e9 51 fc ff ff    	bnd jmp 2020 <__cxa_finalize@plt-0x450>
    23cf:	90                   	nop
    23d0:	f3 0f 1e fa          	endbr64 
    23d4:	68 3a 00 00 00       	push   $0x3a
    23d9:	f2 e9 41 fc ff ff    	bnd jmp 2020 <__cxa_finalize@plt-0x450>
    23df:	90                   	nop
    23e0:	f3 0f 1e fa          	endbr64 
    23e4:	68 3b 00 00 00       	push   $0x3b
    23e9:	f2 e9 31 fc ff ff    	bnd jmp 2020 <__cxa_finalize@plt-0x450>
    23ef:	90                   	nop
    23f0:	f3 0f 1e fa          	endbr64 
    23f4:	68 3c 00 00 00       	push   $0x3c
    23f9:	f2 e9 21 fc ff ff    	bnd jmp 2020 <__cxa_finalize@plt-0x450>
    23ff:	90                   	nop
    2400:	f3 0f 1e fa          	endbr64 
    2404:	68 3d 00 00 00       	push   $0x3d
    2409:	f2 e9 11 fc ff ff    	bnd jmp 2020 <__cxa_finalize@plt-0x450>
    240f:	90                   	nop
    2410:	f3 0f 1e fa          	endbr64 
    2414:	68 3e 00 00 00       	push   $0x3e
    2419:	f2 e9 01 fc ff ff    	bnd jmp 2020 <__cxa_finalize@plt-0x450>
    241f:	90                   	nop
    2420:	f3 0f 1e fa          	endbr64 
    2424:	68 3f 00 00 00       	push   $0x3f
    2429:	f2 e9 f1 fb ff ff    	bnd jmp 2020 <__cxa_finalize@plt-0x450>
    242f:	90                   	nop
    2430:	f3 0f 1e fa          	endbr64 
    2434:	68 40 00 00 00       	push   $0x40
    2439:	f2 e9 e1 fb ff ff    	bnd jmp 2020 <__cxa_finalize@plt-0x450>
    243f:	90                   	nop
    2440:	f3 0f 1e fa          	endbr64 
    2444:	68 41 00 00 00       	push   $0x41
    2449:	f2 e9 d1 fb ff ff    	bnd jmp 2020 <__cxa_finalize@plt-0x450>
    244f:	90                   	nop
    2450:	f3 0f 1e fa          	endbr64 
    2454:	68 42 00 00 00       	push   $0x42
    2459:	f2 e9 c1 fb ff ff    	bnd jmp 2020 <__cxa_finalize@plt-0x450>
    245f:	90                   	nop
    2460:	f3 0f 1e fa          	endbr64 
    2464:	68 43 00 00 00       	push   $0x43
    2469:	f2 e9 b1 fb ff ff    	bnd jmp 2020 <__cxa_finalize@plt-0x450>
    246f:	90                   	nop

Disassembly of section .plt.got:

0000000000002470 <__cxa_finalize@plt>:
    2470:	f3 0f 1e fa          	endbr64 
    2474:	f2 ff 25 7d 5b 02 00 	bnd jmp *0x25b7d(%rip)        # 27ff8 <__ctype_b_loc@plt+0x25748>
    247b:	0f 1f 44 00 00       	nopl   0x0(%rax,%rax,1)

Disassembly of section .plt.sec:

0000000000002480 <getenv@plt>:
    2480:	f3 0f 1e fa          	endbr64 
    2484:	f2 ff 25 2d 59 02 00 	bnd jmp *0x2592d(%rip)        # 27db8 <__ctype_b_loc@plt+0x25508>
    248b:	0f 1f 44 00 00       	nopl   0x0(%rax,%rax,1)

0000000000002490 <__snprintf_chk@plt>:
    2490:	f3 0f 1e fa          	endbr64 
    2494:	f2 ff 25 25 59 02 00 	bnd jmp *0x25925(%rip)        # 27dc0 <__ctype_b_loc@plt+0x25510>
    249b:	0f 1f 44 00 00       	nopl   0x0(%rax,%rax,1)

00000000000024a0 <free@plt>:
    24a0:	f3 0f 1e fa          	endbr64 
    24a4:	f2 ff 25 1d 59 02 00 	bnd jmp *0x2591d(%rip)        # 27dc8 <__ctype_b_loc@plt+0x25518>
    24ab:	0f 1f 44 00 00       	nopl   0x0(%rax,%rax,1)

00000000000024b0 <strcasecmp@plt>:
    24b0:	f3 0f 1e fa          	endbr64 
    24b4:	f2 ff 25 15 59 02 00 	bnd jmp *0x25915(%rip)        # 27dd0 <__ctype_b_loc@plt+0x25520>
    24bb:	0f 1f 44 00 00       	nopl   0x0(%rax,%rax,1)

00000000000024c0 <abort@plt>:
    24c0:	f3 0f 1e fa          	endbr64 
    24c4:	f2 ff 25 0d 59 02 00 	bnd jmp *0x2590d(%rip)        # 27dd8 <__ctype_b_loc@plt+0x25528>
    24cb:	0f 1f 44 00 00       	nopl   0x0(%rax,%rax,1)

00000000000024d0 <__errno_location@plt>:
    24d0:	f3 0f 1e fa          	endbr64 
    24d4:	f2 ff 25 05 59 02 00 	bnd jmp *0x25905(%rip)        # 27de0 <__ctype_b_loc@plt+0x25530>
    24db:	0f 1f 44 00 00       	nopl   0x0(%rax,%rax,1)

00000000000024e0 <unlink@plt>:
    24e0:	f3 0f 1e fa          	endbr64 
    24e4:	f2 ff 25 fd 58 02 00 	bnd jmp *0x258fd(%rip)        # 27de8 <__ctype_b_loc@plt+0x25538>
    24eb:	0f 1f 44 00 00       	nopl   0x0(%rax,%rax,1)

00000000000024f0 <strncpy@plt>:
    24f0:	f3 0f 1e fa          	endbr64 
    24f4:	f2 ff 25 f5 58 02 00 	bnd jmp *0x258f5(%rip)        # 27df0 <__ctype_b_loc@plt+0x25540>
    24fb:	0f 1f 44 00 00       	nopl   0x0(%rax,%rax,1)

0000000000002500 <strcpy@plt>:
    2500:	f3 0f 1e fa          	endbr64 
    2504:	f2 ff 25 ed 58 02 00 	bnd jmp *0x258ed(%rip)        # 27df8 <__ctype_b_loc@plt+0x25548>
    250b:	0f 1f 44 00 00       	nopl   0x0(%rax,%rax,1)

0000000000002510 <mkdir@plt>:
    2510:	f3 0f 1e fa          	endbr64 
    2514:	f2 ff 25 e5 58 02 00 	bnd jmp *0x258e5(%rip)        # 27e00 <__ctype_b_loc@plt+0x25550>
    251b:	0f 1f 44 00 00       	nopl   0x0(%rax,%rax,1)

0000000000002520 <puts@plt>:
    2520:	f3 0f 1e fa          	endbr64 
    2524:	f2 ff 25 dd 58 02 00 	bnd jmp *0x258dd(%rip)        # 27e08 <__ctype_b_loc@plt+0x25558>
    252b:	0f 1f 44 00 00       	nopl   0x0(%rax,%rax,1)

0000000000002530 <fread@plt>:
    2530:	f3 0f 1e fa          	endbr64 
    2534:	f2 ff 25 d5 58 02 00 	bnd jmp *0x258d5(%rip)        # 27e10 <__ctype_b_loc@plt+0x25560>
    253b:	0f 1f 44 00 00       	nopl   0x0(%rax,%rax,1)

0000000000002540 <mbstowcs@plt>:
    2540:	f3 0f 1e fa          	endbr64 
    2544:	f2 ff 25 cd 58 02 00 	bnd jmp *0x258cd(%rip)        # 27e18 <__ctype_b_loc@plt+0x25568>
    254b:	0f 1f 44 00 00       	nopl   0x0(%rax,%rax,1)

0000000000002550 <readlink@plt>:
    2550:	f3 0f 1e fa          	endbr64 
    2554:	f2 ff 25 c5 58 02 00 	bnd jmp *0x258c5(%rip)        # 27e20 <__ctype_b_loc@plt+0x25570>
    255b:	0f 1f 44 00 00       	nopl   0x0(%rax,%rax,1)

0000000000002560 <setenv@plt>:
    2560:	f3 0f 1e fa          	endbr64 
    2564:	f2 ff 25 bd 58 02 00 	bnd jmp *0x258bd(%rip)        # 27e28 <__ctype_b_loc@plt+0x25578>
    256b:	0f 1f 44 00 00       	nopl   0x0(%rax,%rax,1)

0000000000002570 <getpid@plt>:
    2570:	f3 0f 1e fa          	endbr64 
    2574:	f2 ff 25 b5 58 02 00 	bnd jmp *0x258b5(%rip)        # 27e30 <__ctype_b_loc@plt+0x25580>
    257b:	0f 1f 44 00 00       	nopl   0x0(%rax,%rax,1)

0000000000002580 <fclose@plt>:
    2580:	f3 0f 1e fa          	endbr64 
    2584:	f2 ff 25 ad 58 02 00 	bnd jmp *0x258ad(%rip)        # 27e38 <__ctype_b_loc@plt+0x25588>
    258b:	0f 1f 44 00 00       	nopl   0x0(%rax,%rax,1)

0000000000002590 <opendir@plt>:
    2590:	f3 0f 1e fa          	endbr64 
    2594:	f2 ff 25 a5 58 02 00 	bnd jmp *0x258a5(%rip)        # 27e40 <__ctype_b_loc@plt+0x25590>
    259b:	0f 1f 44 00 00       	nopl   0x0(%rax,%rax,1)

00000000000025a0 <getpwuid@plt>:
    25a0:	f3 0f 1e fa          	endbr64 
    25a4:	f2 ff 25 9d 58 02 00 	bnd jmp *0x2589d(%rip)        # 27e48 <__ctype_b_loc@plt+0x25598>
    25ab:	0f 1f 44 00 00       	nopl   0x0(%rax,%rax,1)

00000000000025b0 <rmdir@plt>:
    25b0:	f3 0f 1e fa          	endbr64 
    25b4:	f2 ff 25 95 58 02 00 	bnd jmp *0x25895(%rip)        # 27e50 <__ctype_b_loc@plt+0x255a0>
    25bb:	0f 1f 44 00 00       	nopl   0x0(%rax,%rax,1)

00000000000025c0 <strlen@plt>:
    25c0:	f3 0f 1e fa          	endbr64 
    25c4:	f2 ff 25 8d 58 02 00 	bnd jmp *0x2588d(%rip)        # 27e58 <__ctype_b_loc@plt+0x255a8>
    25cb:	0f 1f 44 00 00       	nopl   0x0(%rax,%rax,1)

00000000000025d0 <__stack_chk_fail@plt>:
    25d0:	f3 0f 1e fa          	endbr64 
    25d4:	f2 ff 25 85 58 02 00 	bnd jmp *0x25885(%rip)        # 27e60 <__ctype_b_loc@plt+0x255b0>
    25db:	0f 1f 44 00 00       	nopl   0x0(%rax,%rax,1)

00000000000025e0 <getuid@plt>:
    25e0:	f3 0f 1e fa          	endbr64 
    25e4:	f2 ff 25 7d 58 02 00 	bnd jmp *0x2587d(%rip)        # 27e68 <__ctype_b_loc@plt+0x255b8>
    25eb:	0f 1f 44 00 00       	nopl   0x0(%rax,%rax,1)

00000000000025f0 <mmap@plt>:
    25f0:	f3 0f 1e fa          	endbr64 
    25f4:	f2 ff 25 75 58 02 00 	bnd jmp *0x25875(%rip)        # 27e70 <__ctype_b_loc@plt+0x255c0>
    25fb:	0f 1f 44 00 00       	nopl   0x0(%rax,%rax,1)

0000000000002600 <symlink@plt>:
    2600:	f3 0f 1e fa          	endbr64 
    2604:	f2 ff 25 6d 58 02 00 	bnd jmp *0x2586d(%rip)        # 27e78 <__ctype_b_loc@plt+0x255c8>
    260b:	0f 1f 44 00 00       	nopl   0x0(%rax,%rax,1)

0000000000002610 <nanosleep@plt>:
    2610:	f3 0f 1e fa          	endbr64 
    2614:	f2 ff 25 65 58 02 00 	bnd jmp *0x25865(%rip)        # 27e80 <__ctype_b_loc@plt+0x255d0>
    261b:	0f 1f 44 00 00       	nopl   0x0(%rax,%rax,1)

0000000000002620 <dirname@plt>:
    2620:	f3 0f 1e fa          	endbr64 
    2624:	f2 ff 25 5d 58 02 00 	bnd jmp *0x2585d(%rip)        # 27e88 <__ctype_b_loc@plt+0x255d8>
    262b:	0f 1f 44 00 00       	nopl   0x0(%rax,%rax,1)

0000000000002630 <lseek@plt>:
    2630:	f3 0f 1e fa          	endbr64 
    2634:	f2 ff 25 55 58 02 00 	bnd jmp *0x25855(%rip)        # 27e90 <__ctype_b_loc@plt+0x255e0>
    263b:	0f 1f 44 00 00       	nopl   0x0(%rax,%rax,1)

0000000000002640 <gettimeofday@plt>:
    2640:	f3 0f 1e fa          	endbr64 
    2644:	f2 ff 25 4d 58 02 00 	bnd jmp *0x2584d(%rip)        # 27e98 <__ctype_b_loc@plt+0x255e8>
    264b:	0f 1f 44 00 00       	nopl   0x0(%rax,%rax,1)

0000000000002650 <iswdigit@plt>:
    2650:	f3 0f 1e fa          	endbr64 
    2654:	f2 ff 25 45 58 02 00 	bnd jmp *0x25845(%rip)        # 27ea0 <__ctype_b_loc@plt+0x255f0>
    265b:	0f 1f 44 00 00       	nopl   0x0(%rax,%rax,1)

0000000000002660 <memset@plt>:
    2660:	f3 0f 1e fa          	endbr64 
    2664:	f2 ff 25 3d 58 02 00 	bnd jmp *0x2583d(%rip)        # 27ea8 <__ctype_b_loc@plt+0x255f8>
    266b:	0f 1f 44 00 00       	nopl   0x0(%rax,%rax,1)

0000000000002670 <close@plt>:
    2670:	f3 0f 1e fa          	endbr64 
    2674:	f2 ff 25 35 58 02 00 	bnd jmp *0x25835(%rip)        # 27eb0 <__ctype_b_loc@plt+0x25600>
    267b:	0f 1f 44 00 00       	nopl   0x0(%rax,%rax,1)

0000000000002680 <__realpath_chk@plt>:
    2680:	f3 0f 1e fa          	endbr64 
    2684:	f2 ff 25 2d 58 02 00 	bnd jmp *0x2582d(%rip)        # 27eb8 <__ctype_b_loc@plt+0x25608>
    268b:	0f 1f 44 00 00       	nopl   0x0(%rax,%rax,1)

0000000000002690 <closedir@plt>:
    2690:	f3 0f 1e fa          	endbr64 
    2694:	f2 ff 25 25 58 02 00 	bnd jmp *0x25825(%rip)        # 27ec0 <__ctype_b_loc@plt+0x25610>
    269b:	0f 1f 44 00 00       	nopl   0x0(%rax,%rax,1)

00000000000026a0 <calloc@plt>:
    26a0:	f3 0f 1e fa          	endbr64 
    26a4:	f2 ff 25 1d 58 02 00 	bnd jmp *0x2581d(%rip)        # 27ec8 <__ctype_b_loc@plt+0x25618>
    26ab:	0f 1f 44 00 00       	nopl   0x0(%rax,%rax,1)

00000000000026b0 <strcmp@plt>:
    26b0:	f3 0f 1e fa          	endbr64 
    26b4:	f2 ff 25 15 58 02 00 	bnd jmp *0x25815(%rip)        # 27ed0 <__ctype_b_loc@plt+0x25620>
    26bb:	0f 1f 44 00 00       	nopl   0x0(%rax,%rax,1)

00000000000026c0 <signal@plt>:
    26c0:	f3 0f 1e fa          	endbr64 
    26c4:	f2 ff 25 0d 58 02 00 	bnd jmp *0x2580d(%rip)        # 27ed8 <__ctype_b_loc@plt+0x25628>
    26cb:	0f 1f 44 00 00       	nopl   0x0(%rax,%rax,1)

00000000000026d0 <__memcpy_chk@plt>:
    26d0:	f3 0f 1e fa          	endbr64 
    26d4:	f2 ff 25 05 58 02 00 	bnd jmp *0x25805(%rip)        # 27ee0 <__ctype_b_loc@plt+0x25630>
    26db:	0f 1f 44 00 00       	nopl   0x0(%rax,%rax,1)

00000000000026e0 <ftell@plt>:
    26e0:	f3 0f 1e fa          	endbr64 
    26e4:	f2 ff 25 fd 57 02 00 	bnd jmp *0x257fd(%rip)        # 27ee8 <__ctype_b_loc@plt+0x25638>
    26eb:	0f 1f 44 00 00       	nopl   0x0(%rax,%rax,1)

00000000000026f0 <stat@plt>:
    26f0:	f3 0f 1e fa          	endbr64 
    26f4:	f2 ff 25 f5 57 02 00 	bnd jmp *0x257f5(%rip)        # 27ef0 <__ctype_b_loc@plt+0x25640>
    26fb:	0f 1f 44 00 00       	nopl   0x0(%rax,%rax,1)

0000000000002700 <memcpy@plt>:
    2700:	f3 0f 1e fa          	endbr64 
    2704:	f2 ff 25 ed 57 02 00 	bnd jmp *0x257ed(%rip)        # 27ef8 <__ctype_b_loc@plt+0x25648>
    270b:	0f 1f 44 00 00       	nopl   0x0(%rax,%rax,1)

0000000000002710 <kill@plt>:
    2710:	f3 0f 1e fa          	endbr64 
    2714:	f2 ff 25 e5 57 02 00 	bnd jmp *0x257e5(%rip)        # 27f00 <__ctype_b_loc@plt+0x25650>
    271b:	0f 1f 44 00 00       	nopl   0x0(%rax,%rax,1)

0000000000002720 <fileno@plt>:
    2720:	f3 0f 1e fa          	endbr64 
    2724:	f2 ff 25 dd 57 02 00 	bnd jmp *0x257dd(%rip)        # 27f08 <__ctype_b_loc@plt+0x25658>
    272b:	0f 1f 44 00 00       	nopl   0x0(%rax,%rax,1)

0000000000002730 <readdir@plt>:
    2730:	f3 0f 1e fa          	endbr64 
    2734:	f2 ff 25 d5 57 02 00 	bnd jmp *0x257d5(%rip)        # 27f10 <__ctype_b_loc@plt+0x25660>
    273b:	0f 1f 44 00 00       	nopl   0x0(%rax,%rax,1)

0000000000002740 <malloc@plt>:
    2740:	f3 0f 1e fa          	endbr64 
    2744:	f2 ff 25 cd 57 02 00 	bnd jmp *0x257cd(%rip)        # 27f18 <__ctype_b_loc@plt+0x25668>
    274b:	0f 1f 44 00 00       	nopl   0x0(%rax,%rax,1)

0000000000002750 <fseek@plt>:
    2750:	f3 0f 1e fa          	endbr64 
    2754:	f2 ff 25 c5 57 02 00 	bnd jmp *0x257c5(%rip)        # 27f20 <__ctype_b_loc@plt+0x25670>
    275b:	0f 1f 44 00 00       	nopl   0x0(%rax,%rax,1)

0000000000002760 <sendfile@plt>:
    2760:	f3 0f 1e fa          	endbr64 
    2764:	f2 ff 25 bd 57 02 00 	bnd jmp *0x257bd(%rip)        # 27f28 <__ctype_b_loc@plt+0x25678>
    276b:	0f 1f 44 00 00       	nopl   0x0(%rax,%rax,1)

0000000000002770 <__strcpy_chk@plt>:
    2770:	f3 0f 1e fa          	endbr64 
    2774:	f2 ff 25 b5 57 02 00 	bnd jmp *0x257b5(%rip)        # 27f30 <__ctype_b_loc@plt+0x25680>
    277b:	0f 1f 44 00 00       	nopl   0x0(%rax,%rax,1)

0000000000002780 <munmap@plt>:
    2780:	f3 0f 1e fa          	endbr64 
    2784:	f2 ff 25 ad 57 02 00 	bnd jmp *0x257ad(%rip)        # 27f38 <__ctype_b_loc@plt+0x25688>
    278b:	0f 1f 44 00 00       	nopl   0x0(%rax,%rax,1)

0000000000002790 <fchmod@plt>:
    2790:	f3 0f 1e fa          	endbr64 
    2794:	f2 ff 25 a5 57 02 00 	bnd jmp *0x257a5(%rip)        # 27f40 <__ctype_b_loc@plt+0x25690>
    279b:	0f 1f 44 00 00       	nopl   0x0(%rax,%rax,1)

00000000000027a0 <memmove@plt>:
    27a0:	f3 0f 1e fa          	endbr64 
    27a4:	f2 ff 25 9d 57 02 00 	bnd jmp *0x2579d(%rip)        # 27f48 <__ctype_b_loc@plt+0x25698>
    27ab:	0f 1f 44 00 00       	nopl   0x0(%rax,%rax,1)

00000000000027b0 <waitpid@plt>:
    27b0:	f3 0f 1e fa          	endbr64 
    27b4:	f2 ff 25 95 57 02 00 	bnd jmp *0x25795(%rip)        # 27f50 <__ctype_b_loc@plt+0x256a0>
    27bb:	0f 1f 44 00 00       	nopl   0x0(%rax,%rax,1)

00000000000027c0 <open@plt>:
    27c0:	f3 0f 1e fa          	endbr64 
    27c4:	f2 ff 25 8d 57 02 00 	bnd jmp *0x2578d(%rip)        # 27f58 <__ctype_b_loc@plt+0x256a8>
    27cb:	0f 1f 44 00 00       	nopl   0x0(%rax,%rax,1)

00000000000027d0 <access@plt>:
    27d0:	f3 0f 1e fa          	endbr64 
    27d4:	f2 ff 25 85 57 02 00 	bnd jmp *0x25785(%rip)        # 27f60 <__ctype_b_loc@plt+0x256b0>
    27db:	0f 1f 44 00 00       	nopl   0x0(%rax,%rax,1)

00000000000027e0 <fopen@plt>:
    27e0:	f3 0f 1e fa          	endbr64 
    27e4:	f2 ff 25 7d 57 02 00 	bnd jmp *0x2577d(%rip)        # 27f68 <__ctype_b_loc@plt+0x256b8>
    27eb:	0f 1f 44 00 00       	nopl   0x0(%rax,%rax,1)

00000000000027f0 <perror@plt>:
    27f0:	f3 0f 1e fa          	endbr64 
    27f4:	f2 ff 25 75 57 02 00 	bnd jmp *0x25775(%rip)        # 27f70 <__ctype_b_loc@plt+0x256c0>
    27fb:	0f 1f 44 00 00       	nopl   0x0(%rax,%rax,1)

0000000000002800 <rename@plt>:
    2800:	f3 0f 1e fa          	endbr64 
    2804:	f2 ff 25 6d 57 02 00 	bnd jmp *0x2576d(%rip)        # 27f78 <__ctype_b_loc@plt+0x256c8>
    280b:	0f 1f 44 00 00       	nopl   0x0(%rax,%rax,1)

0000000000002810 <unsetenv@plt>:
    2810:	f3 0f 1e fa          	endbr64 
    2814:	f2 ff 25 65 57 02 00 	bnd jmp *0x25765(%rip)        # 27f80 <__ctype_b_loc@plt+0x256d0>
    281b:	0f 1f 44 00 00       	nopl   0x0(%rax,%rax,1)

0000000000002820 <creat@plt>:
    2820:	f3 0f 1e fa          	endbr64 
    2824:	f2 ff 25 5d 57 02 00 	bnd jmp *0x2575d(%rip)        # 27f88 <__ctype_b_loc@plt+0x256d8>
    282b:	0f 1f 44 00 00       	nopl   0x0(%rax,%rax,1)

0000000000002830 <exit@plt>:
    2830:	f3 0f 1e fa          	endbr64 
    2834:	f2 ff 25 55 57 02 00 	bnd jmp *0x25755(%rip)        # 27f90 <__ctype_b_loc@plt+0x256e0>
    283b:	0f 1f 44 00 00       	nopl   0x0(%rax,%rax,1)

0000000000002840 <fwrite@plt>:
    2840:	f3 0f 1e fa          	endbr64 
    2844:	f2 ff 25 4d 57 02 00 	bnd jmp *0x2574d(%rip)        # 27f98 <__ctype_b_loc@plt+0x256e8>
    284b:	0f 1f 44 00 00       	nopl   0x0(%rax,%rax,1)

0000000000002850 <__fprintf_chk@plt>:
    2850:	f3 0f 1e fa          	endbr64 
    2854:	f2 ff 25 45 57 02 00 	bnd jmp *0x25745(%rip)        # 27fa0 <__ctype_b_loc@plt+0x256f0>
    285b:	0f 1f 44 00 00       	nopl   0x0(%rax,%rax,1)

0000000000002860 <strdup@plt>:
    2860:	f3 0f 1e fa          	endbr64 
    2864:	f2 ff 25 3d 57 02 00 	bnd jmp *0x2573d(%rip)        # 27fa8 <__ctype_b_loc@plt+0x256f8>
    286b:	0f 1f 44 00 00       	nopl   0x0(%rax,%rax,1)

0000000000002870 <strerror@plt>:
    2870:	f3 0f 1e fa          	endbr64 
    2874:	f2 ff 25 35 57 02 00 	bnd jmp *0x25735(%rip)        # 27fb0 <__ctype_b_loc@plt+0x25700>
    287b:	0f 1f 44 00 00       	nopl   0x0(%rax,%rax,1)

0000000000002880 <fstat@plt>:
    2880:	f3 0f 1e fa          	endbr64 
    2884:	f2 ff 25 2d 57 02 00 	bnd jmp *0x2572d(%rip)        # 27fb8 <__ctype_b_loc@plt+0x25708>
    288b:	0f 1f 44 00 00       	nopl   0x0(%rax,%rax,1)

0000000000002890 <execv@plt>:
    2890:	f3 0f 1e fa          	endbr64 
    2894:	f2 ff 25 25 57 02 00 	bnd jmp *0x25725(%rip)        # 27fc0 <__ctype_b_loc@plt+0x25710>
    289b:	0f 1f 44 00 00       	nopl   0x0(%rax,%rax,1)

00000000000028a0 <fork@plt>:
    28a0:	f3 0f 1e fa          	endbr64 
    28a4:	f2 ff 25 1d 57 02 00 	bnd jmp *0x2571d(%rip)        # 27fc8 <__ctype_b_loc@plt+0x25718>
    28ab:	0f 1f 44 00 00       	nopl   0x0(%rax,%rax,1)

00000000000028b0 <__ctype_b_loc@plt>:
    28b0:	f3 0f 1e fa          	endbr64 
    28b4:	f2 ff 25 15 57 02 00 	bnd jmp *0x25715(%rip)        # 27fd0 <__ctype_b_loc@plt+0x25720>
    28bb:	0f 1f 44 00 00       	nopl   0x0(%rax,%rax,1)

Disassembly of section .text:

00000000000028c0 <.text>:
    28c0:	e8 fb fb ff ff       	call   24c0 <abort@plt>
    28c5:	e8 f6 fb ff ff       	call   24c0 <abort@plt>
    28ca:	e8 f1 fb ff ff       	call   24c0 <abort@plt>
    28cf:	49 83 cd ff          	or     $0xffffffffffffffff,%r13
    28d3:	e9 03 74 01 00       	jmp    19cdb <__ctype_b_loc@plt+0x1742b>
    28d8:	49 83 cc ff          	or     $0xffffffffffffffff,%r12
    28dc:	e9 a9 7a 01 00       	jmp    1a38a <__ctype_b_loc@plt+0x17ada>
    28e1:	e8 da fb ff ff       	call   24c0 <abort@plt>
    28e6:	e8 d5 fb ff ff       	call   24c0 <abort@plt>
    28eb:	e8 d0 fb ff ff       	call   24c0 <abort@plt>
    28f0:	e8 cb fb ff ff       	call   24c0 <abort@plt>
    28f5:	e8 c6 fb ff ff       	call   24c0 <abort@plt>
    28fa:	e8 c1 fb ff ff       	call   24c0 <abort@plt>
    28ff:	50                   	push   %rax
    2900:	e8 bb fb ff ff       	call   24c0 <abort@plt>
    2905:	e8 b6 fb ff ff       	call   24c0 <abort@plt>
    290a:	e8 b1 fb ff ff       	call   24c0 <abort@plt>
    290f:	e8 ac fb ff ff       	call   24c0 <abort@plt>
    2914:	52                   	push   %rdx
    2915:	e8 a6 fb ff ff       	call   24c0 <abort@plt>
    291a:	50                   	push   %rax
    291b:	e8 a0 fb ff ff       	call   24c0 <abort@plt>
    2920:	e8 9b fb ff ff       	call   24c0 <abort@plt>
    2925:	e8 96 fb ff ff       	call   24c0 <abort@plt>
    292a:	e8 91 fb ff ff       	call   24c0 <abort@plt>
    292f:	e8 8c fb ff ff       	call   24c0 <abort@plt>
    2934:	e8 87 fb ff ff       	call   24c0 <abort@plt>
    2939:	0f 1f 80 00 00 00 00 	nopl   0x0(%rax)
    2940:	f3 0f 1e fa          	endbr64 
    2944:	41 57                	push   %r15
    2946:	41 56                	push   %r14
    2948:	41 55                	push   %r13
    294a:	4c 8d 2d ab bc 01 00 	lea    0x1bcab(%rip),%r13        # 1e5fc <__ctype_b_loc@plt+0x1bd4c>
    2951:	41 54                	push   %r12
    2953:	55                   	push   %rbp
    2954:	53                   	push   %rbx
    2955:	48 81 ec c8 04 00 00 	sub    $0x4c8,%rsp
    295c:	48 89 74 24 08       	mov    %rsi,0x8(%rsp)
    2961:	64 48 8b 04 25 28 00 	mov    %fs:0x28,%rax
    2968:	00 00 
    296a:	48 89 84 24 b8 04 00 	mov    %rax,0x4b8(%rsp)
    2971:	00 
    2972:	31 c0                	xor    %eax,%eax
    2974:	e8 f7 fb ff ff       	call   2570 <getpid@plt>
    2979:	48 8d 3d 02 bc 01 00 	lea    0x1bc02(%rip),%rdi        # 1e582 <__ctype_b_loc@plt+0x1bcd2>
    2980:	48 63 f0             	movslq %eax,%rsi
    2983:	e8 28 a2 01 00       	call   1cbb0 <__ctype_b_loc@plt+0x1a300>
    2988:	ba 00 10 00 00       	mov    $0x1000,%edx
    298d:	4c 89 ee             	mov    %r13,%rsi
    2990:	48 8d 3d 49 4f 03 00 	lea    0x34f49(%rip),%rdi        # 378e0 <stderr@GLIBC_2.2.5+0xf8c0>
    2997:	e8 94 a9 01 00       	call   1d330 <__ctype_b_loc@plt+0x1aa80>
    299c:	80 3d fd 0e 03 00 00 	cmpb   $0x0,0x30efd(%rip)        # 338a0 <stderr@GLIBC_2.2.5+0xb880>
    29a3:	89 c5                	mov    %eax,%ebp
    29a5:	75 05                	jne    29ac <__ctype_b_loc@plt+0xfc>
    29a7:	e8 94 16 00 00       	call   4040 <__ctype_b_loc@plt+0x1790>
    29ac:	31 f6                	xor    %esi,%esi
    29ae:	48 8d 3d eb 0e 03 00 	lea    0x30eeb(%rip),%rdi        # 338a0 <stderr@GLIBC_2.2.5+0xb880>
    29b5:	31 c0                	xor    %eax,%eax
    29b7:	e8 04 fe ff ff       	call   27c0 <open@plt>
    29bc:	41 89 c7             	mov    %eax,%r15d
    29bf:	83 f8 ff             	cmp    $0xffffffff,%eax
    29c2:	0f 84 65 07 00 00    	je     312d <__ctype_b_loc@plt+0x87d>
    29c8:	ba 02 00 00 00       	mov    $0x2,%edx
    29cd:	31 f6                	xor    %esi,%esi
    29cf:	89 c7                	mov    %eax,%edi
    29d1:	e8 5a fc ff ff       	call   2630 <lseek@plt>
    29d6:	49 89 c6             	mov    %rax,%r14
    29d9:	48 83 f8 ff          	cmp    $0xffffffffffffffff,%rax
    29dd:	0f 84 e2 06 00 00    	je     30c5 <__ctype_b_loc@plt+0x815>
    29e3:	31 d2                	xor    %edx,%edx
    29e5:	31 f6                	xor    %esi,%esi
    29e7:	44 89 ff             	mov    %r15d,%edi
    29ea:	e8 41 fc ff ff       	call   2630 <lseek@plt>
    29ef:	48 83 f8 ff          	cmp    $0xffffffffffffffff,%rax
    29f3:	0f 84 cc 06 00 00    	je     30c5 <__ctype_b_loc@plt+0x815>
    29f9:	45 31 c9             	xor    %r9d,%r9d
    29fc:	45 89 f8             	mov    %r15d,%r8d
    29ff:	b9 02 00 00 00       	mov    $0x2,%ecx
    2a04:	ba 01 00 00 00       	mov    $0x1,%edx
    2a09:	4c 89 f6             	mov    %r14,%rsi
    2a0c:	31 ff                	xor    %edi,%edi
    2a0e:	e8 dd fb ff ff       	call   25f0 <mmap@plt>
    2a13:	48 89 c3             	mov    %rax,%rbx
    2a16:	31 c0                	xor    %eax,%eax
    2a18:	48 83 fb ff          	cmp    $0xffffffffffffffff,%rbx
    2a1c:	0f 84 4e 07 00 00    	je     3170 <__ctype_b_loc@plt+0x8c0>
    2a22:	f3 0f 7e 04 24       	movq   (%rsp),%xmm0
    2a27:	66 48 0f 6e cb       	movq   %rbx,%xmm1
    2a2c:	88 05 ee 5e 03 00    	mov    %al,0x35eee(%rip)        # 38920 <stderr@GLIBC_2.2.5+0x10900>
    2a32:	44 89 25 eb 5e 03 00 	mov    %r12d,0x35eeb(%rip)        # 38924 <stderr@GLIBC_2.2.5+0x10904>
    2a39:	66 0f 6c c1          	punpcklqdq %xmm1,%xmm0
    2a3d:	44 89 3d f4 5e 03 00 	mov    %r15d,0x35ef4(%rip)        # 38938 <stderr@GLIBC_2.2.5+0x10918>
    2a44:	4c 89 35 f5 5e 03 00 	mov    %r14,0x35ef5(%rip)        # 38940 <stderr@GLIBC_2.2.5+0x10920>
    2a4b:	0f 11 05 d6 5e 03 00 	movups %xmm0,0x35ed6(%rip)        # 38928 <stderr@GLIBC_2.2.5+0x10908>
    2a52:	84 c0                	test   %al,%al
    2a54:	0f 85 61 07 00 00    	jne    31bb <__ctype_b_loc@plt+0x90b>
    2a5a:	4e 8b 64 33 f8       	mov    -0x8(%rbx,%r14,1),%r12
    2a5f:	4c 29 e3             	sub    %r12,%rbx
    2a62:	4c 89 25 df 5e 03 00 	mov    %r12,0x35edf(%rip)        # 38948 <stderr@GLIBC_2.2.5+0x10928>
    2a69:	4a 8d 5c 33 f8       	lea    -0x8(%rbx,%r14,1),%rbx
    2a6e:	48 89 1d db 5e 03 00 	mov    %rbx,0x35edb(%rip)        # 38950 <stderr@GLIBC_2.2.5+0x10930>
    2a75:	48 89 1d dc 5e 03 00 	mov    %rbx,0x35edc(%rip)        # 38958 <stderr@GLIBC_2.2.5+0x10938>
    2a7c:	40 84 ed             	test   %bpl,%bpl
    2a7f:	0f 84 c9 06 00 00    	je     314e <__ctype_b_loc@plt+0x89e>
    2a85:	48 8d 2d 34 1a 00 00 	lea    0x1a34(%rip),%rbp        # 44c0 <__ctype_b_loc@plt+0x1c10>
    2a8c:	bf 02 00 00 00       	mov    $0x2,%edi
    2a91:	48 89 ee             	mov    %rbp,%rsi
    2a94:	e8 27 fc ff ff       	call   26c0 <signal@plt>
    2a99:	48 89 ee             	mov    %rbp,%rsi
    2a9c:	bf 03 00 00 00       	mov    $0x3,%edi
    2aa1:	e8 1a fc ff ff       	call   26c0 <signal@plt>
    2aa6:	48 89 ee             	mov    %rbp,%rsi
    2aa9:	bf 0f 00 00 00       	mov    $0xf,%edi
    2aae:	48 8d 6b 03          	lea    0x3(%rbx),%rbp
    2ab2:	e8 09 fc ff ff       	call   26c0 <signal@plt>
    2ab7:	80 7b 01 41          	cmpb   $0x41,0x1(%rbx)
    2abb:	48 89 2d 8e 5e 03 00 	mov    %rbp,0x35e8e(%rip)        # 38950 <stderr@GLIBC_2.2.5+0x10930>
    2ac2:	0f b6 13             	movzbl (%rbx),%edx
    2ac5:	0f b6 43 02          	movzbl 0x2(%rbx),%eax
    2ac9:	0f 85 e0 06 00 00    	jne    31af <__ctype_b_loc@plt+0x8ff>
    2acf:	80 fa 4b             	cmp    $0x4b,%dl
    2ad2:	0f 85 d7 06 00 00    	jne    31af <__ctype_b_loc@plt+0x8ff>
    2ad8:	3c 59                	cmp    $0x59,%al
    2ada:	0f 85 cf 06 00 00    	jne    31af <__ctype_b_loc@plt+0x8ff>
    2ae0:	48 c7 05 15 5e 03 00 	movq   $0x0,0x35e15(%rip)        # 38900 <stderr@GLIBC_2.2.5+0x108e0>
    2ae7:	00 00 00 00 
    2aeb:	bf 00 00 02 00       	mov    $0x20000,%edi
    2af0:	e8 4b fc ff ff       	call   2740 <malloc@plt>
    2af5:	48 89 05 e4 5d 03 00 	mov    %rax,0x35de4(%rip)        # 388e0 <stderr@GLIBC_2.2.5+0x108c0>
    2afc:	48 85 c0             	test   %rax,%rax
    2aff:	0f 84 06 06 00 00    	je     310b <__ctype_b_loc@plt+0x85b>
    2b05:	bf b8 74 02 00       	mov    $0x274b8,%edi
    2b0a:	e8 31 fc ff ff       	call   2740 <malloc@plt>
    2b0f:	48 89 c6             	mov    %rax,%rsi
    2b12:	48 85 c0             	test   %rax,%rax
    2b15:	0f 84 e5 05 00 00    	je     3100 <__ctype_b_loc@plt+0x850>
    2b1b:	48 c7 80 b0 73 00 00 	movq   $0x0,0x73b0(%rax)
    2b22:	00 00 00 00 
    2b26:	66 0f ef c0          	pxor   %xmm0,%xmm0
    2b2a:	48 c7 80 c8 73 00 00 	movq   $0x0,0x73c8(%rax)
    2b31:	00 00 00 00 
    2b35:	48 c7 80 d8 72 00 00 	movq   $0x0,0x72d8(%rax)
    2b3c:	00 00 00 00 
    2b40:	48 c7 80 ec 73 00 00 	movq   $0x0,0x73ec(%rax)
    2b47:	00 00 00 00 
    2b4b:	48 c7 80 f8 73 00 00 	movq   $0x0,0x73f8(%rax)
    2b52:	00 00 00 00 
    2b56:	48 c7 80 00 74 00 00 	movq   $0x0,0x7400(%rax)
    2b5d:	00 00 00 00 
    2b61:	48 c7 80 20 74 00 00 	movq   $0x0,0x7420(%rax)
    2b68:	00 00 00 00 
    2b6c:	c7 80 f4 73 00 00 00 	movl   $0x0,0x73f4(%rax)
    2b73:	00 00 00 
    2b76:	48 c7 80 40 74 00 00 	movq   $0x0,0x7440(%rax)
    2b7d:	00 00 00 00 
    2b81:	c7 80 48 74 00 00 00 	movl   $0x0,0x7448(%rax)
    2b88:	00 00 00 
    2b8b:	c7 80 54 74 00 00 00 	movl   $0x0,0x7454(%rax)
    2b92:	00 00 00 
    2b95:	48 c7 80 b0 74 02 00 	movq   $0x0,0x274b0(%rax)
    2b9c:	00 00 00 00 
    2ba0:	0f 11 80 a0 73 00 00 	movups %xmm0,0x73a0(%rax)
    2ba7:	0f 11 80 d8 73 00 00 	movups %xmm0,0x73d8(%rax)
    2bae:	31 c0                	xor    %eax,%eax
    2bb0:	0f a2                	cpuid  
    2bb2:	31 c9                	xor    %ecx,%ecx
    2bb4:	83 f8 06             	cmp    $0x6,%eax
    2bb7:	0f 87 fa 04 00 00    	ja     30b7 <__ctype_b_loc@plt+0x807>
    2bbd:	c1 e9 08             	shr    $0x8,%ecx
    2bc0:	48 c7 86 10 74 00 00 	movq   $0x8000001,0x7410(%rsi)
    2bc7:	01 00 00 08 
    2bcb:	4c 8d 2d 8e dc 02 00 	lea    0x2dc8e(%rip),%r13        # 30860 <stderr@GLIBC_2.2.5+0x8840>
    2bd2:	48 8d 1d 87 54 02 00 	lea    0x25487(%rip),%rbx        # 28060 <stderr@GLIBC_2.2.5+0x40>
    2bd9:	83 e1 01             	and    $0x1,%ecx
    2bdc:	c7 86 58 74 00 00 00 	movl   $0x0,0x7458(%rsi)
    2be3:	00 00 00 
    2be6:	89 8e d0 73 00 00    	mov    %ecx,0x73d0(%rsi)
    2bec:	48 c7 86 88 73 00 00 	movq   $0x0,0x7388(%rsi)
    2bf3:	00 00 00 00 
    2bf7:	c7 86 90 73 00 00 01 	movl   $0x1,0x7390(%rsi)
    2bfe:	00 00 00 
    2c01:	48 89 35 10 5d 03 00 	mov    %rsi,0x35d10(%rip)        # 38918 <stderr@GLIBC_2.2.5+0x108f8>
    2c08:	48 c7 05 fd 5c 03 00 	movq   $0x0,0x35cfd(%rip)        # 38910 <stderr@GLIBC_2.2.5+0x108f0>
    2c0f:	00 00 00 00 
    2c13:	4c 89 25 ee 5c 03 00 	mov    %r12,0x35cee(%rip)        # 38908 <stderr@GLIBC_2.2.5+0x108e8>
    2c1a:	c6 05 9f 4c 03 00 01 	movb   $0x1,0x34c9f(%rip)        # 378c0 <stderr@GLIBC_2.2.5+0xf8a0>
    2c21:	48 89 2d d8 5c 03 00 	mov    %rbp,0x35cd8(%rip)        # 38900 <stderr@GLIBC_2.2.5+0x108e0>
    2c28:	48 8d 6c 24 18       	lea    0x18(%rsp),%rbp
    2c2d:	0f 1f 00             	nopl   (%rax)
    2c30:	4c 8d 25 29 d4 02 00 	lea    0x2d429(%rip),%r12        # 30060 <stderr@GLIBC_2.2.5+0x8040>
    2c37:	eb 0b                	jmp    2c44 <__ctype_b_loc@plt+0x394>
    2c39:	0f 1f 80 00 00 00 00 	nopl   0x0(%rax)
    2c40:	49 83 c4 01          	add    $0x1,%r12
    2c44:	48 89 ef             	mov    %rbp,%rdi
    2c47:	e8 d4 82 01 00       	call   1af20 <__ctype_b_loc@plt+0x18670>
    2c4c:	0f b6 44 24 18       	movzbl 0x18(%rsp),%eax
    2c51:	41 88 04 24          	mov    %al,(%r12)
    2c55:	84 c0                	test   %al,%al
    2c57:	75 e7                	jne    2c40 <__ctype_b_loc@plt+0x390>
    2c59:	48 8d 05 00 d4 02 00 	lea    0x2d400(%rip),%rax        # 30060 <stderr@GLIBC_2.2.5+0x8040>
    2c60:	80 38 00             	cmpb   $0x0,(%rax)
    2c63:	0f 84 8f 02 00 00    	je     2ef8 <__ctype_b_loc@plt+0x648>
    2c69:	48 8d 3d 70 4c 03 00 	lea    0x34c70(%rip),%rdi        # 378e0 <stderr@GLIBC_2.2.5+0xf8c0>
    2c70:	c6 05 e9 db 02 00 00 	movb   $0x0,0x2dbe9(%rip)        # 30860 <stderr@GLIBC_2.2.5+0x8840>
    2c77:	e8 44 f9 ff ff       	call   25c0 <strlen@plt>
    2c7c:	b9 00 10 00 00       	mov    $0x1000,%ecx
    2c81:	48 8d 35 58 4c 03 00 	lea    0x34c58(%rip),%rsi        # 378e0 <stderr@GLIBC_2.2.5+0xf8c0>
    2c88:	4c 89 ef             	mov    %r13,%rdi
    2c8b:	4c 8d 70 01          	lea    0x1(%rax),%r14
    2c8f:	49 89 c4             	mov    %rax,%r12
    2c92:	4c 89 f2             	mov    %r14,%rdx
    2c95:	e8 36 fa ff ff       	call   26d0 <__memcpy_chk@plt>
    2c9a:	b8 2f 00 00 00       	mov    $0x2f,%eax
    2c9f:	66 89 84 24 b0 00 00 	mov    %ax,0xb0(%rsp)
    2ca6:	00 
    2ca7:	49 81 fc ff 0f 00 00 	cmp    $0xfff,%r12
    2cae:	0f 84 80 fc ff ff    	je     2934 <__ctype_b_loc@plt+0x84>
    2cb4:	41 bf 00 10 00 00    	mov    $0x1000,%r15d
    2cba:	4b 8d 7c 25 00       	lea    0x0(%r13,%r12,1),%rdi
    2cbf:	ba 02 00 00 00       	mov    $0x2,%edx
    2cc4:	4c 89 f9             	mov    %r15,%rcx
    2cc7:	48 8d b4 24 b0 00 00 	lea    0xb0(%rsp),%rsi
    2cce:	00 
    2ccf:	4c 29 e1             	sub    %r12,%rcx
    2cd2:	e8 f9 f9 ff ff       	call   26d0 <__memcpy_chk@plt>
    2cd7:	48 8d 3d 82 d3 02 00 	lea    0x2d382(%rip),%rdi        # 30060 <stderr@GLIBC_2.2.5+0x8040>
    2cde:	e8 dd f8 ff ff       	call   25c0 <strlen@plt>
    2ce3:	4e 8d 24 30          	lea    (%rax,%r14,1),%r12
    2ce7:	49 81 fc ff 0f 00 00 	cmp    $0xfff,%r12
    2cee:	0f 87 40 fc ff ff    	ja     2934 <__ctype_b_loc@plt+0x84>
    2cf4:	4c 89 f9             	mov    %r15,%rcx
    2cf7:	48 8d 50 01          	lea    0x1(%rax),%rdx
    2cfb:	4b 8d 7c 35 00       	lea    0x0(%r13,%r14,1),%rdi
    2d00:	4c 29 f1             	sub    %r14,%rcx
    2d03:	48 8d 35 56 d3 02 00 	lea    0x2d356(%rip),%rsi        # 30060 <stderr@GLIBC_2.2.5+0x8040>
    2d0a:	e8 c1 f9 ff ff       	call   26d0 <__memcpy_chk@plt>
    2d0f:	48 8d 05 4a d7 02 00 	lea    0x2d74a(%rip),%rax        # 30460 <stderr@GLIBC_2.2.5+0x8440>
    2d16:	80 38 00             	cmpb   $0x0,(%rax)
    2d19:	0f 84 49 01 00 00    	je     2e68 <__ctype_b_loc@plt+0x5b8>
    2d1f:	48 89 ef             	mov    %rbp,%rdi
    2d22:	e8 f9 81 01 00       	call   1af20 <__ctype_b_loc@plt+0x18670>
    2d27:	0f b6 44 24 18       	movzbl 0x18(%rsp),%eax
    2d2c:	88 04 24             	mov    %al,(%rsp)
    2d2f:	a8 02                	test   $0x2,%al
    2d31:	0f 85 d9 00 00 00    	jne    2e10 <__ctype_b_loc@plt+0x560>
    2d37:	be 08 00 00 00       	mov    $0x8,%esi
    2d3c:	48 89 ef             	mov    %rbp,%rdi
    2d3f:	e8 bc 80 01 00       	call   1ae00 <__ctype_b_loc@plt+0x18550>
    2d44:	4c 8b 7c 24 18       	mov    0x18(%rsp),%r15
    2d49:	e8 02 26 00 00       	call   5350 <__ctype_b_loc@plt+0x2aa0>
    2d4e:	48 8d 35 e2 b7 01 00 	lea    0x1b7e2(%rip),%rsi        # 1e537 <__ctype_b_loc@plt+0x1bc87>
    2d55:	4c 89 ef             	mov    %r13,%rdi
    2d58:	e8 83 fa ff ff       	call   27e0 <fopen@plt>
    2d5d:	49 89 c6             	mov    %rax,%r14
    2d60:	48 85 c0             	test   %rax,%rax
    2d63:	0f 84 f4 00 00 00    	je     2e5d <__ctype_b_loc@plt+0x5ad>
    2d69:	4d 85 ff             	test   %r15,%r15
    2d6c:	74 37                	je     2da5 <__ctype_b_loc@plt+0x4f5>
    2d6e:	66 90                	xchg   %ax,%ax
    2d70:	41 bc 00 80 00 00    	mov    $0x8000,%r12d
    2d76:	48 89 df             	mov    %rbx,%rdi
    2d79:	4d 39 e7             	cmp    %r12,%r15
    2d7c:	4d 0f 46 e7          	cmovbe %r15,%r12
    2d80:	4c 89 e6             	mov    %r12,%rsi
    2d83:	e8 78 80 01 00       	call   1ae00 <__ctype_b_loc@plt+0x18550>
    2d88:	4c 89 f1             	mov    %r14,%rcx
    2d8b:	4c 89 e2             	mov    %r12,%rdx
    2d8e:	be 01 00 00 00       	mov    $0x1,%esi
    2d93:	48 89 df             	mov    %rbx,%rdi
    2d96:	e8 a5 fa ff ff       	call   2840 <fwrite@plt>
    2d9b:	49 39 c4             	cmp    %rax,%r12
    2d9e:	75 68                	jne    2e08 <__ctype_b_loc@plt+0x558>
    2da0:	4d 29 e7             	sub    %r12,%r15
    2da3:	75 cb                	jne    2d70 <__ctype_b_loc@plt+0x4c0>
    2da5:	f6 04 24 01          	testb  $0x1,(%rsp)
    2da9:	74 4d                	je     2df8 <__ctype_b_loc@plt+0x548>
    2dab:	4c 89 f7             	mov    %r14,%rdi
    2dae:	e8 6d f9 ff ff       	call   2720 <fileno@plt>
    2db3:	48 8d 74 24 20       	lea    0x20(%rsp),%rsi
    2db8:	89 c7                	mov    %eax,%edi
    2dba:	41 89 c4             	mov    %eax,%r12d
    2dbd:	e8 be fa ff ff       	call   2880 <fstat@plt>
    2dc2:	83 f8 ff             	cmp    $0xffffffff,%eax
    2dc5:	0f 84 15 01 00 00    	je     2ee0 <__ctype_b_loc@plt+0x630>
    2dcb:	8b 74 24 38          	mov    0x38(%rsp),%esi
    2dcf:	40 f6 c6 20          	test   $0x20,%sil
    2dd3:	0f 85 d7 00 00 00    	jne    2eb0 <__ctype_b_loc@plt+0x600>
    2dd9:	83 ce 40             	or     $0x40,%esi
    2ddc:	44 89 e7             	mov    %r12d,%edi
    2ddf:	89 74 24 38          	mov    %esi,0x38(%rsp)
    2de3:	e8 a8 f9 ff ff       	call   2790 <fchmod@plt>
    2de8:	83 f8 ff             	cmp    $0xffffffff,%eax
    2deb:	0f 84 d7 00 00 00    	je     2ec8 <__ctype_b_loc@plt+0x618>
    2df1:	0f 1f 80 00 00 00 00 	nopl   0x0(%rax)
    2df8:	4c 89 f7             	mov    %r14,%rdi
    2dfb:	e8 80 f7 ff ff       	call   2580 <fclose@plt>
    2e00:	85 c0                	test   %eax,%eax
    2e02:	0f 84 28 fe ff ff    	je     2c30 <__ctype_b_loc@plt+0x380>
    2e08:	e8 f3 ae 01 00       	call   1dd00 <__ctype_b_loc@plt+0x1b450>
    2e0d:	0f 1f 00             	nopl   (%rax)
    2e10:	4c 8d 25 49 d2 02 00 	lea    0x2d249(%rip),%r12        # 30060 <stderr@GLIBC_2.2.5+0x8040>
    2e17:	eb 0b                	jmp    2e24 <__ctype_b_loc@plt+0x574>
    2e19:	0f 1f 80 00 00 00 00 	nopl   0x0(%rax)
    2e20:	49 83 c4 01          	add    $0x1,%r12
    2e24:	48 89 ef             	mov    %rbp,%rdi
    2e27:	e8 f4 80 01 00       	call   1af20 <__ctype_b_loc@plt+0x18670>
    2e2c:	0f b6 44 24 18       	movzbl 0x18(%rsp),%eax
    2e31:	41 88 04 24          	mov    %al,(%r12)
    2e35:	84 c0                	test   %al,%al
    2e37:	75 e7                	jne    2e20 <__ctype_b_loc@plt+0x570>
    2e39:	e8 12 25 00 00       	call   5350 <__ctype_b_loc@plt+0x2aa0>
    2e3e:	4c 89 ef             	mov    %r13,%rdi
    2e41:	e8 9a f6 ff ff       	call   24e0 <unlink@plt>
    2e46:	4c 89 ee             	mov    %r13,%rsi
    2e49:	48 8d 3d 10 d2 02 00 	lea    0x2d210(%rip),%rdi        # 30060 <stderr@GLIBC_2.2.5+0x8040>
    2e50:	e8 ab f7 ff ff       	call   2600 <symlink@plt>
    2e55:	85 c0                	test   %eax,%eax
    2e57:	0f 84 d3 fd ff ff    	je     2c30 <__ctype_b_loc@plt+0x380>
    2e5d:	e8 1e 12 00 00       	call   4080 <__ctype_b_loc@plt+0x17d0>
    2e62:	66 0f 1f 44 00 00    	nopw   0x0(%rax,%rax,1)
    2e68:	48 89 c7             	mov    %rax,%rdi
    2e6b:	e8 50 f7 ff ff       	call   25c0 <strlen@plt>
    2e70:	49 8d 14 04          	lea    (%r12,%rax,1),%rdx
    2e74:	48 81 fa ff 0f 00 00 	cmp    $0xfff,%rdx
    2e7b:	0f 87 b3 fa ff ff    	ja     2934 <__ctype_b_loc@plt+0x84>
    2e81:	48 8d 35 d8 d5 02 00 	lea    0x2d5d8(%rip),%rsi        # 30460 <stderr@GLIBC_2.2.5+0x8440>
    2e88:	b9 00 04 00 00       	mov    $0x400,%ecx
    2e8d:	49 8d 54 24 01       	lea    0x1(%r12),%rdx
    2e92:	48 8d 3c 30          	lea    (%rax,%rsi,1),%rdi
    2e96:	48 29 c1             	sub    %rax,%rcx
    2e99:	4c 89 ee             	mov    %r13,%rsi
    2e9c:	e8 2f f8 ff ff       	call   26d0 <__memcpy_chk@plt>
    2ea1:	e9 79 fe ff ff       	jmp    2d1f <__ctype_b_loc@plt+0x46f>
    2ea6:	66 2e 0f 1f 84 00 00 	cs nopw 0x0(%rax,%rax,1)
    2ead:	00 00 00 
    2eb0:	83 ce 41             	or     $0x41,%esi
    2eb3:	44 89 e7             	mov    %r12d,%edi
    2eb6:	89 74 24 38          	mov    %esi,0x38(%rsp)
    2eba:	e8 d1 f8 ff ff       	call   2790 <fchmod@plt>
    2ebf:	83 f8 ff             	cmp    $0xffffffff,%eax
    2ec2:	0f 85 30 ff ff ff    	jne    2df8 <__ctype_b_loc@plt+0x548>
    2ec8:	e8 03 f6 ff ff       	call   24d0 <__errno_location@plt>
    2ecd:	48 8d 3d 4a b7 01 00 	lea    0x1b74a(%rip),%rdi        # 1e61e <__ctype_b_loc@plt+0x1bd6e>
    2ed4:	8b 30                	mov    (%rax),%esi
    2ed6:	e8 c5 ad 01 00       	call   1dca0 <__ctype_b_loc@plt+0x1b3f0>
    2edb:	e9 18 ff ff ff       	jmp    2df8 <__ctype_b_loc@plt+0x548>
    2ee0:	e8 eb f5 ff ff       	call   24d0 <__errno_location@plt>
    2ee5:	48 8d 3d 2c b7 01 00 	lea    0x1b72c(%rip),%rdi        # 1e618 <__ctype_b_loc@plt+0x1bd68>
    2eec:	8b 30                	mov    (%rax),%esi
    2eee:	e8 ad ad 01 00       	call   1dca0 <__ctype_b_loc@plt+0x1b3f0>
    2ef3:	e9 d3 fe ff ff       	jmp    2dcb <__ctype_b_loc@plt+0x51b>
    2ef8:	48 8b 35 41 5a 03 00 	mov    0x35a41(%rip),%rsi        # 38940 <stderr@GLIBC_2.2.5+0x10920>
    2eff:	48 8b 3d 2a 5a 03 00 	mov    0x35a2a(%rip),%rdi        # 38930 <stderr@GLIBC_2.2.5+0x10910>
    2f06:	e8 75 f8 ff ff       	call   2780 <munmap@plt>
    2f0b:	8b 3d 27 5a 03 00    	mov    0x35a27(%rip),%edi        # 38938 <stderr@GLIBC_2.2.5+0x10918>
    2f11:	e8 5a f7 ff ff       	call   2670 <close@plt>
    2f16:	4c 8b 25 fb 59 03 00 	mov    0x359fb(%rip),%r12        # 38918 <stderr@GLIBC_2.2.5+0x108f8>
    2f1d:	4d 85 e4             	test   %r12,%r12
    2f20:	0f 84 ac 00 00 00    	je     2fd2 <__ctype_b_loc@plt+0x722>
    2f26:	49 83 bc 24 c8 73 00 	cmpq   $0x0,0x73c8(%r12)
    2f2d:	00 00 
    2f2f:	0f 85 9d 00 00 00    	jne    2fd2 <__ctype_b_loc@plt+0x722>
    2f35:	4d 8b b4 24 d8 73 00 	mov    0x73d8(%r12),%r14
    2f3c:	00 
    2f3d:	49 8b 9c 24 a8 73 00 	mov    0x73a8(%r12),%rbx
    2f44:	00 
    2f45:	4d 8b ac 24 b0 73 00 	mov    0x73b0(%r12),%r13
    2f4c:	00 
    2f4d:	4d 85 f6             	test   %r14,%r14
    2f50:	74 34                	je     2f86 <__ctype_b_loc@plt+0x6d6>
    2f52:	49 8b 36             	mov    (%r14),%rsi
    2f55:	4d 8b be c8 6a 00 00 	mov    0x6ac8(%r14),%r15
    2f5c:	49 8b be d0 6a 00 00 	mov    0x6ad0(%r14),%rdi
    2f63:	48 85 f6             	test   %rsi,%rsi
    2f66:	0f 84 ab 01 00 00    	je     3117 <__ctype_b_loc@plt+0x867>
    2f6c:	4d 85 ff             	test   %r15,%r15
    2f6f:	0f 84 2d 02 00 00    	je     31a2 <__ctype_b_loc@plt+0x8f2>
    2f75:	48 89 3c 24          	mov    %rdi,(%rsp)
    2f79:	41 ff d7             	call   *%r15
    2f7c:	48 8b 3c 24          	mov    (%rsp),%rdi
    2f80:	4c 89 f6             	mov    %r14,%rsi
    2f83:	41 ff d7             	call   *%r15
    2f86:	49 8b b4 24 f8 73 00 	mov    0x73f8(%r12),%rsi
    2f8d:	00 
    2f8e:	66 0f ef c0          	pxor   %xmm0,%xmm0
    2f92:	41 c7 84 24 f0 73 00 	movl   $0x0,0x73f0(%r12)
    2f99:	00 00 00 00 00 
    2f9e:	41 0f 11 84 24 d8 73 	movups %xmm0,0x73d8(%r12)
    2fa5:	00 00 
    2fa7:	48 85 f6             	test   %rsi,%rsi
    2faa:	0f 84 3a 01 00 00    	je     30ea <__ctype_b_loc@plt+0x83a>
    2fb0:	48 85 db             	test   %rbx,%rbx
    2fb3:	0f 84 dc 01 00 00    	je     3195 <__ctype_b_loc@plt+0x8e5>
    2fb9:	4c 89 ef             	mov    %r13,%rdi
    2fbc:	ff d3                	call   *%rbx
    2fbe:	49 c7 84 24 f8 73 00 	movq   $0x0,0x73f8(%r12)
    2fc5:	00 00 00 00 00 
    2fca:	4c 89 e6             	mov    %r12,%rsi
    2fcd:	4c 89 ef             	mov    %r13,%rdi
    2fd0:	ff d3                	call   *%rbx
    2fd2:	48 8b 3d 07 59 03 00 	mov    0x35907(%rip),%rdi        # 388e0 <stderr@GLIBC_2.2.5+0x108c0>
    2fd9:	4c 8d 25 c0 18 03 00 	lea    0x318c0(%rip),%r12        # 348a0 <stderr@GLIBC_2.2.5+0xc880>
    2fe0:	e8 bb f4 ff ff       	call   24a0 <free@plt>
    2fe5:	31 ff                	xor    %edi,%edi
    2fe7:	e8 84 a1 01 00       	call   1d170 <__ctype_b_loc@plt+0x1a8c0>
    2fec:	ba 01 10 00 00       	mov    $0x1001,%edx
    2ff1:	4c 89 e7             	mov    %r12,%rdi
    2ff4:	48 89 c6             	mov    %rax,%rsi
    2ff7:	e8 14 a2 01 00       	call   1d210 <__ctype_b_loc@plt+0x1a960>
    2ffc:	4c 89 e7             	mov    %r12,%rdi
    2fff:	e8 1c f6 ff ff       	call   2620 <dirname@plt>
    3004:	ba 01 00 00 00       	mov    $0x1,%edx
    3009:	48 8d 3d 15 b6 01 00 	lea    0x1b615(%rip),%rdi        # 1e625 <__ctype_b_loc@plt+0x1bd75>
    3010:	48 89 c6             	mov    %rax,%rsi
    3013:	e8 48 f5 ff ff       	call   2560 <setenv@plt>
    3018:	48 8b 44 24 08       	mov    0x8(%rsp),%rax
    301d:	ba 01 00 00 00       	mov    $0x1,%edx
    3022:	48 8d 3d 15 b6 01 00 	lea    0x1b615(%rip),%rdi        # 1e63e <__ctype_b_loc@plt+0x1bd8e>
    3029:	48 8b 30             	mov    (%rax),%rsi
    302c:	e8 2f f5 ff ff       	call   2560 <setenv@plt>
    3031:	e8 6a f8 ff ff       	call   28a0 <fork@plt>
    3036:	89 c3                	mov    %eax,%ebx
    3038:	85 c0                	test   %eax,%eax
    303a:	0f 88 1f 02 00 00    	js     325f <__ctype_b_loc@plt+0x9af>
    3040:	0f 84 da 01 00 00    	je     3220 <__ctype_b_loc@plt+0x970>
    3046:	89 05 f8 4f 02 00    	mov    %eax,0x24ff8(%rip)        # 28044 <stderr@GLIBC_2.2.5+0x24>
    304c:	0f 1f 40 00          	nopl   0x0(%rax)
    3050:	31 d2                	xor    %edx,%edx
    3052:	48 89 ee             	mov    %rbp,%rsi
    3055:	89 df                	mov    %ebx,%edi
    3057:	c7 44 24 18 00 00 00 	movl   $0x0,0x18(%rsp)
    305e:	00 
    305f:	e8 4c f7 ff ff       	call   27b0 <waitpid@plt>
    3064:	83 f8 ff             	cmp    $0xffffffff,%eax
    3067:	75 17                	jne    3080 <__ctype_b_loc@plt+0x7d0>
    3069:	e8 62 f4 ff ff       	call   24d0 <__errno_location@plt>
    306e:	8b 00                	mov    (%rax),%eax
    3070:	83 f8 04             	cmp    $0x4,%eax
    3073:	74 db                	je     3050 <__ctype_b_loc@plt+0x7a0>
    3075:	41 bc 02 00 00 00    	mov    $0x2,%r12d
    307b:	83 f8 0a             	cmp    $0xa,%eax
    307e:	75 06                	jne    3086 <__ctype_b_loc@plt+0x7d6>
    3080:	44 0f b6 64 24 19    	movzbl 0x19(%rsp),%r12d
    3086:	e8 d5 12 00 00       	call   4360 <__ctype_b_loc@plt+0x1ab0>
    308b:	48 8b 84 24 b8 04 00 	mov    0x4b8(%rsp),%rax
    3092:	00 
    3093:	64 48 2b 04 25 28 00 	sub    %fs:0x28,%rax
    309a:	00 00 
    309c:	0f 85 d7 01 00 00    	jne    3279 <__ctype_b_loc@plt+0x9c9>
    30a2:	48 81 c4 c8 04 00 00 	add    $0x4c8,%rsp
    30a9:	44 89 e0             	mov    %r12d,%eax
    30ac:	5b                   	pop    %rbx
    30ad:	5d                   	pop    %rbp
    30ae:	41 5c                	pop    %r12
    30b0:	41 5d                	pop    %r13
    30b2:	41 5e                	pop    %r14
    30b4:	41 5f                	pop    %r15
    30b6:	c3                   	ret    
    30b7:	b8 07 00 00 00       	mov    $0x7,%eax
    30bc:	0f a2                	cpuid  
    30be:	89 d9                	mov    %ebx,%ecx
    30c0:	e9 f8 fa ff ff       	jmp    2bbd <__ctype_b_loc@plt+0x30d>
    30c5:	e8 06 f4 ff ff       	call   24d0 <__errno_location@plt>
    30ca:	44 89 ff             	mov    %r15d,%edi
    30cd:	44 8b 20             	mov    (%rax),%r12d
    30d0:	e8 9b f5 ff ff       	call   2670 <close@plt>
    30d5:	48 8d 05 15 b5 01 00 	lea    0x1b515(%rip),%rax        # 1e5f1 <__ctype_b_loc@plt+0x1bd41>
    30dc:	48 89 04 24          	mov    %rax,(%rsp)
    30e0:	b8 01 00 00 00       	mov    $0x1,%eax
    30e5:	e9 38 f9 ff ff       	jmp    2a22 <__ctype_b_loc@plt+0x172>
    30ea:	48 85 db             	test   %rbx,%rbx
    30ed:	0f 85 d7 fe ff ff    	jne    2fca <__ctype_b_loc@plt+0x71a>
    30f3:	4c 89 e7             	mov    %r12,%rdi
    30f6:	e8 a5 f3 ff ff       	call   24a0 <free@plt>
    30fb:	e9 d2 fe ff ff       	jmp    2fd2 <__ctype_b_loc@plt+0x722>
    3100:	48 c7 05 0d 58 03 00 	movq   $0x0,0x3580d(%rip)        # 38918 <stderr@GLIBC_2.2.5+0x108f8>
    3107:	00 00 00 00 
    310b:	48 8d 3d f6 ae 01 00 	lea    0x1aef6(%rip),%rdi        # 1e008 <__ctype_b_loc@plt+0x1b758>
    3112:	e8 69 0b 00 00       	call   3c80 <__ctype_b_loc@plt+0x13d0>
    3117:	4d 85 ff             	test   %r15,%r15
    311a:	0f 85 60 fe ff ff    	jne    2f80 <__ctype_b_loc@plt+0x6d0>
    3120:	4c 89 f7             	mov    %r14,%rdi
    3123:	e8 78 f3 ff ff       	call   24a0 <free@plt>
    3128:	e9 59 fe ff ff       	jmp    2f86 <__ctype_b_loc@plt+0x6d6>
    312d:	e8 9e f3 ff ff       	call   24d0 <__errno_location@plt>
    3132:	49 83 ce ff          	or     $0xffffffffffffffff,%r14
    3136:	44 8b 20             	mov    (%rax),%r12d
    3139:	48 8d 05 ac b4 01 00 	lea    0x1b4ac(%rip),%rax        # 1e5ec <__ctype_b_loc@plt+0x1bd3c>
    3140:	48 89 04 24          	mov    %rax,(%rsp)
    3144:	b8 01 00 00 00       	mov    $0x1,%eax
    3149:	e9 d4 f8 ff ff       	jmp    2a22 <__ctype_b_loc@plt+0x172>
    314e:	48 8b 3d cb 4e 02 00 	mov    0x24ecb(%rip),%rdi        # 28020 <stderr@GLIBC_2.2.5>
    3155:	4c 89 e9             	mov    %r13,%rcx
    3158:	be 01 00 00 00       	mov    $0x1,%esi
    315d:	31 c0                	xor    %eax,%eax
    315f:	48 8d 15 62 b1 01 00 	lea    0x1b162(%rip),%rdx        # 1e2c8 <__ctype_b_loc@plt+0x1ba18>
    3166:	e8 e5 f6 ff ff       	call   2850 <__fprintf_chk@plt>
    316b:	e8 50 f3 ff ff       	call   24c0 <abort@plt>
    3170:	e8 5b f3 ff ff       	call   24d0 <__errno_location@plt>
    3175:	44 89 ff             	mov    %r15d,%edi
    3178:	44 8b 20             	mov    (%rax),%r12d
    317b:	e8 f0 f4 ff ff       	call   2670 <close@plt>
    3180:	48 8d 05 70 b4 01 00 	lea    0x1b470(%rip),%rax        # 1e5f7 <__ctype_b_loc@plt+0x1bd47>
    3187:	48 89 04 24          	mov    %rax,(%rsp)
    318b:	b8 01 00 00 00       	mov    $0x1,%eax
    3190:	e9 8d f8 ff ff       	jmp    2a22 <__ctype_b_loc@plt+0x172>
    3195:	48 89 f7             	mov    %rsi,%rdi
    3198:	e8 03 f3 ff ff       	call   24a0 <free@plt>
    319d:	e9 51 ff ff ff       	jmp    30f3 <__ctype_b_loc@plt+0x843>
    31a2:	48 89 f7             	mov    %rsi,%rdi
    31a5:	e8 f6 f2 ff ff       	call   24a0 <free@plt>
    31aa:	e9 71 ff ff ff       	jmp    3120 <__ctype_b_loc@plt+0x870>
    31af:	48 8d 3d 42 b1 01 00 	lea    0x1b142(%rip),%rdi        # 1e2f8 <__ctype_b_loc@plt+0x1ba48>
    31b6:	e8 c5 0a 00 00       	call   3c80 <__ctype_b_loc@plt+0x13d0>
    31bb:	48 8d bc 24 b0 00 00 	lea    0xb0(%rsp),%rdi
    31c2:	00 
    31c3:	48 8d 35 ae b1 01 00 	lea    0x1b1ae(%rip),%rsi        # 1e378 <__ctype_b_loc@plt+0x1bac8>
    31ca:	b9 09 00 00 00       	mov    $0x9,%ecx
    31cf:	ba 00 04 00 00       	mov    $0x400,%edx
    31d4:	f3 a5                	rep movsl %ds:(%rsi),%es:(%rdi)
    31d6:	48 8d bc 24 d8 00 00 	lea    0xd8(%rsp),%rdi
    31dd:	00 
    31de:	48 c7 84 24 d4 00 00 	movq   $0x0,0xd4(%rsp)
    31e5:	00 00 00 00 00 
    31ea:	48 8d ac 24 b0 00 00 	lea    0xb0(%rsp),%rbp
    31f1:	00 
    31f2:	48 c7 84 24 a8 04 00 	movq   $0x0,0x4a8(%rsp)
    31f9:	00 00 00 00 00 
    31fe:	48 89 c8             	mov    %rcx,%rax
    3201:	b9 7b 00 00 00       	mov    $0x7b,%ecx
    3206:	f3 48 ab             	rep stos %rax,%es:(%rdi)
    3209:	48 89 ef             	mov    %rbp,%rdi
    320c:	48 8b 34 24          	mov    (%rsp),%rsi
    3210:	e8 bb a0 01 00       	call   1d2d0 <__ctype_b_loc@plt+0x1aa20>
    3215:	44 89 e6             	mov    %r12d,%esi
    3218:	48 89 ef             	mov    %rbp,%rdi
    321b:	e8 c0 aa 01 00       	call   1dce0 <__ctype_b_loc@plt+0x1b430>
    3220:	80 3d 79 06 03 00 00 	cmpb   $0x0,0x30679(%rip)        # 338a0 <stderr@GLIBC_2.2.5+0xb880>
    3227:	75 05                	jne    322e <__ctype_b_loc@plt+0x97e>
    3229:	e8 12 0e 00 00       	call   4040 <__ctype_b_loc@plt+0x1790>
    322e:	48 8b 44 24 08       	mov    0x8(%rsp),%rax
    3233:	48 8d 15 66 06 03 00 	lea    0x30666(%rip),%rdx        # 338a0 <stderr@GLIBC_2.2.5+0xb880>
    323a:	48 8d 3d 1f d2 02 00 	lea    0x2d21f(%rip),%rdi        # 30460 <stderr@GLIBC_2.2.5+0x8440>
    3241:	48 89 10             	mov    %rdx,(%rax)
    3244:	48 89 c6             	mov    %rax,%rsi
    3247:	e8 44 f6 ff ff       	call   2890 <execv@plt>
    324c:	e8 7f f2 ff ff       	call   24d0 <__errno_location@plt>
    3251:	48 8d 3d f8 b0 01 00 	lea    0x1b0f8(%rip),%rdi        # 1e350 <__ctype_b_loc@plt+0x1baa0>
    3258:	8b 30                	mov    (%rax),%esi
    325a:	e8 81 aa 01 00       	call   1dce0 <__ctype_b_loc@plt+0x1b430>
    325f:	e8 6c f2 ff ff       	call   24d0 <__errno_location@plt>
    3264:	8b 28                	mov    (%rax),%ebp
    3266:	e8 f5 10 00 00       	call   4360 <__ctype_b_loc@plt+0x1ab0>
    326b:	48 8d 3d b6 b0 01 00 	lea    0x1b0b6(%rip),%rdi        # 1e328 <__ctype_b_loc@plt+0x1ba78>
    3272:	89 ee                	mov    %ebp,%esi
    3274:	e8 67 aa 01 00       	call   1dce0 <__ctype_b_loc@plt+0x1b430>
    3279:	e8 52 f3 ff ff       	call   25d0 <__stack_chk_fail@plt>
    327e:	66 90                	xchg   %ax,%ax
    3280:	f3 0f 1e fa          	endbr64 
    3284:	31 ed                	xor    %ebp,%ebp
    3286:	49 89 d1             	mov    %rdx,%r9
    3289:	5e                   	pop    %rsi
    328a:	48 89 e2             	mov    %rsp,%rdx
    328d:	48 83 e4 f0          	and    $0xfffffffffffffff0,%rsp
    3291:	50                   	push   %rax
    3292:	54                   	push   %rsp
    3293:	45 31 c0             	xor    %r8d,%r8d
    3296:	31 c9                	xor    %ecx,%ecx
    3298:	48 8d 3d a1 f6 ff ff 	lea    -0x95f(%rip),%rdi        # 2940 <__ctype_b_loc@plt+0x90>
    329f:	ff 15 33 4d 02 00    	call   *0x24d33(%rip)        # 27fd8 <__ctype_b_loc@plt+0x25728>
    32a5:	f4                   	hlt    
    32a6:	66 2e 0f 1f 84 00 00 	cs nopw 0x0(%rax,%rax,1)
    32ad:	00 00 00 
    32b0:	48 8d 3d 59 4d 02 00 	lea    0x24d59(%rip),%rdi        # 28010 <__ctype_b_loc@plt+0x25760>
    32b7:	48 8d 05 52 4d 02 00 	lea    0x24d52(%rip),%rax        # 28010 <__ctype_b_loc@plt+0x25760>
    32be:	48 39 f8             	cmp    %rdi,%rax
    32c1:	74 15                	je     32d8 <__ctype_b_loc@plt+0xa28>
    32c3:	48 8b 05 16 4d 02 00 	mov    0x24d16(%rip),%rax        # 27fe0 <__ctype_b_loc@plt+0x25730>
    32ca:	48 85 c0             	test   %rax,%rax
    32cd:	74 09                	je     32d8 <__ctype_b_loc@plt+0xa28>
    32cf:	ff e0                	jmp    *%rax
    32d1:	0f 1f 80 00 00 00 00 	nopl   0x0(%rax)
    32d8:	c3                   	ret    
    32d9:	0f 1f 80 00 00 00 00 	nopl   0x0(%rax)
    32e0:	48 8d 3d 29 4d 02 00 	lea    0x24d29(%rip),%rdi        # 28010 <__ctype_b_loc@plt+0x25760>
    32e7:	48 8d 35 22 4d 02 00 	lea    0x24d22(%rip),%rsi        # 28010 <__ctype_b_loc@plt+0x25760>
    32ee:	48 29 fe             	sub    %rdi,%rsi
    32f1:	48 89 f0             	mov    %rsi,%rax
    32f4:	48 c1 ee 3f          	shr    $0x3f,%rsi
    32f8:	48 c1 f8 03          	sar    $0x3,%rax
    32fc:	48 01 c6             	add    %rax,%rsi
    32ff:	48 d1 fe             	sar    %rsi
    3302:	74 14                	je     3318 <__ctype_b_loc@plt+0xa68>
    3304:	48 8b 05 e5 4c 02 00 	mov    0x24ce5(%rip),%rax        # 27ff0 <__ctype_b_loc@plt+0x25740>
    330b:	48 85 c0             	test   %rax,%rax
    330e:	74 08                	je     3318 <__ctype_b_loc@plt+0xa68>
    3310:	ff e0                	jmp    *%rax
    3312:	66 0f 1f 44 00 00    	nopw   0x0(%rax,%rax,1)
    3318:	c3                   	ret    
    3319:	0f 1f 80 00 00 00 00 	nopl   0x0(%rax)
    3320:	f3 0f 1e fa          	endbr64 
    3324:	80 3d fd 4c 02 00 00 	cmpb   $0x0,0x24cfd(%rip)        # 28028 <stderr@GLIBC_2.2.5+0x8>
    332b:	75 2b                	jne    3358 <__ctype_b_loc@plt+0xaa8>
    332d:	55                   	push   %rbp
    332e:	48 83 3d c2 4c 02 00 	cmpq   $0x0,0x24cc2(%rip)        # 27ff8 <__ctype_b_loc@plt+0x25748>
    3335:	00 
    3336:	48 89 e5             	mov    %rsp,%rbp
    3339:	74 0c                	je     3347 <__ctype_b_loc@plt+0xa97>
    333b:	48 8b 3d c6 4c 02 00 	mov    0x24cc6(%rip),%rdi        # 28008 <__ctype_b_loc@plt+0x25758>
    3342:	e8 29 f1 ff ff       	call   2470 <__cxa_finalize@plt>
    3347:	e8 64 ff ff ff       	call   32b0 <__ctype_b_loc@plt+0xa00>
    334c:	c6 05 d5 4c 02 00 01 	movb   $0x1,0x24cd5(%rip)        # 28028 <stderr@GLIBC_2.2.5+0x8>
    3353:	5d                   	pop    %rbp
    3354:	c3                   	ret    
    3355:	0f 1f 00             	nopl   (%rax)
    3358:	c3                   	ret    
    3359:	0f 1f 80 00 00 00 00 	nopl   0x0(%rax)
    3360:	f3 0f 1e fa          	endbr64 
    3364:	e9 77 ff ff ff       	jmp    32e0 <__ctype_b_loc@plt+0xa30>
    3369:	66 2e 0f 1f 84 00 00 	cs nopw 0x0(%rax,%rax,1)
    3370:	00 00 00 
    3373:	66 2e 0f 1f 84 00 00 	cs nopw 0x0(%rax,%rax,1)
    337a:	00 00 00 
    337d:	0f 1f 00             	nopl   (%rax)
    3380:	8b 57 08             	mov    0x8(%rdi),%edx
    3383:	48 89 f8             	mov    %rdi,%rax
    3386:	41 b8 03 00 00 00    	mov    $0x3,%r8d
    338c:	83 fa 40             	cmp    $0x40,%edx
    338f:	77 52                	ja     33e3 <__ctype_b_loc@plt+0xb33>
    3391:	48 8b 4f 10          	mov    0x10(%rdi),%rcx
    3395:	48 3b 4f 20          	cmp    0x20(%rdi),%rcx
    3399:	73 55                	jae    33f0 <__ctype_b_loc@plt+0xb40>
    339b:	4c 8b 4f 18          	mov    0x18(%rdi),%r9
    339f:	4c 39 c9             	cmp    %r9,%rcx
    33a2:	74 6c                	je     3410 <__ctype_b_loc@plt+0xb60>
    33a4:	89 d6                	mov    %edx,%esi
    33a6:	48 89 cf             	mov    %rcx,%rdi
    33a9:	c1 ee 03             	shr    $0x3,%esi
    33ac:	41 89 f0             	mov    %esi,%r8d
    33af:	4c 29 c7             	sub    %r8,%rdi
    33b2:	45 31 c0             	xor    %r8d,%r8d
    33b5:	49 39 f9             	cmp    %rdi,%r9
    33b8:	76 17                	jbe    33d1 <__ctype_b_loc@plt+0xb21>
    33ba:	48 89 cf             	mov    %rcx,%rdi
    33bd:	4c 29 cf             	sub    %r9,%rdi
    33c0:	41 89 f8             	mov    %edi,%r8d
    33c3:	89 fe                	mov    %edi,%esi
    33c5:	4c 29 c1             	sub    %r8,%rcx
    33c8:	41 b8 01 00 00 00    	mov    $0x1,%r8d
    33ce:	48 89 cf             	mov    %rcx,%rdi
    33d1:	c1 e6 03             	shl    $0x3,%esi
    33d4:	48 89 78 10          	mov    %rdi,0x10(%rax)
    33d8:	29 f2                	sub    %esi,%edx
    33da:	89 50 08             	mov    %edx,0x8(%rax)
    33dd:	48 8b 17             	mov    (%rdi),%rdx
    33e0:	48 89 10             	mov    %rdx,(%rax)
    33e3:	44 89 c0             	mov    %r8d,%eax
    33e6:	c3                   	ret    
    33e7:	66 0f 1f 84 00 00 00 	nopw   0x0(%rax,%rax,1)
    33ee:	00 00 
    33f0:	89 d6                	mov    %edx,%esi
    33f2:	83 e2 07             	and    $0x7,%edx
    33f5:	45 31 c0             	xor    %r8d,%r8d
    33f8:	c1 ee 03             	shr    $0x3,%esi
    33fb:	89 57 08             	mov    %edx,0x8(%rdi)
    33fe:	44 89 c0             	mov    %r8d,%eax
    3401:	48 29 f1             	sub    %rsi,%rcx
    3404:	48 8b 11             	mov    (%rcx),%rdx
    3407:	48 89 4f 10          	mov    %rcx,0x10(%rdi)
    340b:	48 89 17             	mov    %rdx,(%rdi)
    340e:	c3                   	ret    
    340f:	90                   	nop
    3410:	45 31 c0             	xor    %r8d,%r8d
    3413:	83 fa 40             	cmp    $0x40,%edx
    3416:	41 0f 94 c0          	sete   %r8b
    341a:	41 83 c0 01          	add    $0x1,%r8d
    341e:	44 89 c0             	mov    %r8d,%eax
    3421:	c3                   	ret    
    3422:	66 66 2e 0f 1f 84 00 	data16 cs nopw 0x0(%rax,%rax,1)
    3429:	00 00 00 00 
    342d:	0f 1f 00             	nopl   (%rax)
    3430:	48 89 f8             	mov    %rdi,%rax
    3433:	49 89 c9             	mov    %rcx,%r9
    3436:	48 89 f7             	mov    %rsi,%rdi
    3439:	48 8d 34 08          	lea    (%rax,%rcx,1),%rsi
    343d:	48 83 f9 07          	cmp    $0x7,%rcx
    3441:	0f 8e 59 02 00 00    	jle    36a0 <__ctype_b_loc@plt+0xdf0>
    3447:	41 83 f8 01          	cmp    $0x1,%r8d
    344b:	0f 84 5f 01 00 00    	je     35b0 <__ctype_b_loc@plt+0xd00>
    3451:	48 39 fe             	cmp    %rdi,%rsi
    3454:	0f 86 96 04 00 00    	jbe    38f0 <__ctype_b_loc@plt+0x1040>
    345a:	48 39 c7             	cmp    %rax,%rdi
    345d:	0f 83 cd 04 00 00    	jae    3930 <__ctype_b_loc@plt+0x1080>
    3463:	48 39 c6             	cmp    %rax,%rsi
    3466:	0f 86 31 02 00 00    	jbe    369d <__ctype_b_loc@plt+0xded>
    346c:	48 89 f7             	mov    %rsi,%rdi
    346f:	4c 8d 42 01          	lea    0x1(%rdx),%r8
    3473:	48 8d 48 01          	lea    0x1(%rax),%rcx
    3477:	49 89 c2             	mov    %rax,%r10
    347a:	48 29 c7             	sub    %rax,%rdi
    347d:	4d 29 c2             	sub    %r8,%r10
    3480:	49 83 fa 0e          	cmp    $0xe,%r10
    3484:	4c 8d 4f ff          	lea    -0x1(%rdi),%r9
    3488:	41 0f 97 c3          	seta   %r11b
    348c:	49 83 f9 06          	cmp    $0x6,%r9
    3490:	41 0f 97 c2          	seta   %r10b
    3494:	45 84 d3             	test   %r10b,%r11b
    3497:	0f 84 f3 01 00 00    	je     3690 <__ctype_b_loc@plt+0xde0>
    349d:	48 39 ce             	cmp    %rcx,%rsi
    34a0:	0f 82 ea 01 00 00    	jb     3690 <__ctype_b_loc@plt+0xde0>
    34a6:	b9 01 00 00 00       	mov    $0x1,%ecx
    34ab:	48 0f 42 f9          	cmovb  %rcx,%rdi
    34af:	49 83 f9 0e          	cmp    $0xe,%r9
    34b3:	0f 86 d9 04 00 00    	jbe    3992 <__ctype_b_loc@plt+0x10e2>
    34b9:	49 89 f8             	mov    %rdi,%r8
    34bc:	31 c9                	xor    %ecx,%ecx
    34be:	49 83 e0 f0          	and    $0xfffffffffffffff0,%r8
    34c2:	66 0f 1f 44 00 00    	nopw   0x0(%rax,%rax,1)
    34c8:	f3 0f 6f 04 0a       	movdqu (%rdx,%rcx,1),%xmm0
    34cd:	0f 11 04 08          	movups %xmm0,(%rax,%rcx,1)
    34d1:	48 83 c1 10          	add    $0x10,%rcx
    34d5:	4c 39 c1             	cmp    %r8,%rcx
    34d8:	75 ee                	jne    34c8 <__ctype_b_loc@plt+0xc18>
    34da:	49 89 f8             	mov    %rdi,%r8
    34dd:	49 83 e0 f0          	and    $0xfffffffffffffff0,%r8
    34e1:	4a 8d 0c 00          	lea    (%rax,%r8,1),%rcx
    34e5:	4e 8d 0c 02          	lea    (%rdx,%r8,1),%r9
    34e9:	4c 39 c7             	cmp    %r8,%rdi
    34ec:	0f 84 dd 04 00 00    	je     39cf <__ctype_b_loc@plt+0x111f>
    34f2:	49 89 fa             	mov    %rdi,%r10
    34f5:	48 83 ef 01          	sub    $0x1,%rdi
    34f9:	4c 29 c7             	sub    %r8,%rdi
    34fc:	4d 29 c2             	sub    %r8,%r10
    34ff:	48 83 ff 06          	cmp    $0x6,%rdi
    3503:	76 1e                	jbe    3523 <__ctype_b_loc@plt+0xc73>
    3505:	4a 8b 14 02          	mov    (%rdx,%r8,1),%rdx
    3509:	4a 89 14 00          	mov    %rdx,(%rax,%r8,1)
    350d:	4c 89 d0             	mov    %r10,%rax
    3510:	48 83 e0 f8          	and    $0xfffffffffffffff8,%rax
    3514:	48 01 c1             	add    %rax,%rcx
    3517:	49 01 c1             	add    %rax,%r9
    351a:	49 39 c2             	cmp    %rax,%r10
    351d:	0f 84 7a 01 00 00    	je     369d <__ctype_b_loc@plt+0xded>
    3523:	41 0f b6 01          	movzbl (%r9),%eax
    3527:	88 01                	mov    %al,(%rcx)
    3529:	48 8d 41 01          	lea    0x1(%rcx),%rax
    352d:	48 39 c6             	cmp    %rax,%rsi
    3530:	0f 86 67 01 00 00    	jbe    369d <__ctype_b_loc@plt+0xded>
    3536:	41 0f b6 41 01       	movzbl 0x1(%r9),%eax
    353b:	88 41 01             	mov    %al,0x1(%rcx)
    353e:	48 8d 41 02          	lea    0x2(%rcx),%rax
    3542:	48 39 c6             	cmp    %rax,%rsi
    3545:	0f 86 52 01 00 00    	jbe    369d <__ctype_b_loc@plt+0xded>
    354b:	41 0f b6 41 02       	movzbl 0x2(%r9),%eax
    3550:	88 41 02             	mov    %al,0x2(%rcx)
    3553:	48 8d 41 03          	lea    0x3(%rcx),%rax
    3557:	48 39 c6             	cmp    %rax,%rsi
    355a:	0f 86 3d 01 00 00    	jbe    369d <__ctype_b_loc@plt+0xded>
    3560:	41 0f b6 41 03       	movzbl 0x3(%r9),%eax
    3565:	88 41 03             	mov    %al,0x3(%rcx)
    3568:	48 8d 41 04          	lea    0x4(%rcx),%rax
    356c:	48 39 c6             	cmp    %rax,%rsi
    356f:	0f 86 28 01 00 00    	jbe    369d <__ctype_b_loc@plt+0xded>
    3575:	41 0f b6 41 04       	movzbl 0x4(%r9),%eax
    357a:	88 41 04             	mov    %al,0x4(%rcx)
    357d:	48 8d 41 05          	lea    0x5(%rcx),%rax
    3581:	48 39 c6             	cmp    %rax,%rsi
    3584:	0f 86 13 01 00 00    	jbe    369d <__ctype_b_loc@plt+0xded>
    358a:	41 0f b6 41 05       	movzbl 0x5(%r9),%eax
    358f:	88 41 05             	mov    %al,0x5(%rcx)
    3592:	48 8d 41 06          	lea    0x6(%rcx),%rax
    3596:	48 39 c6             	cmp    %rax,%rsi
    3599:	0f 86 fe 00 00 00    	jbe    369d <__ctype_b_loc@plt+0xded>
    359f:	41 0f b6 41 06       	movzbl 0x6(%r9),%eax
    35a4:	88 41 06             	mov    %al,0x6(%rcx)
    35a7:	c3                   	ret    
    35a8:	0f 1f 84 00 00 00 00 	nopl   0x0(%rax,%rax,1)
    35af:	00 
    35b0:	49 89 c0             	mov    %rax,%r8
    35b3:	49 29 d0             	sub    %rdx,%r8
    35b6:	49 83 f8 07          	cmp    $0x7,%r8
    35ba:	0f 86 18 02 00 00    	jbe    37d8 <__ctype_b_loc@plt+0xf28>
    35c0:	4c 8b 02             	mov    (%rdx),%r8
    35c3:	4c 89 00             	mov    %r8,(%rax)
    35c6:	4c 8d 4a 08          	lea    0x8(%rdx),%r9
    35ca:	4c 8d 40 08          	lea    0x8(%rax),%r8
    35ce:	48 39 fe             	cmp    %rdi,%rsi
    35d1:	0f 87 51 02 00 00    	ja     3828 <__ctype_b_loc@plt+0xf78>
    35d7:	48 89 c7             	mov    %rax,%rdi
    35da:	49 8d 34 08          	lea    (%r8,%rcx,1),%rsi
    35de:	48 29 d7             	sub    %rdx,%rdi
    35e1:	48 83 ff 0f          	cmp    $0xf,%rdi
    35e5:	0f 8f f6 02 00 00    	jg     38e1 <__ctype_b_loc@plt+0x1031>
    35eb:	4d 89 c2             	mov    %r8,%r10
    35ee:	48 89 f1             	mov    %rsi,%rcx
    35f1:	48 8d 78 09          	lea    0x9(%rax),%rdi
    35f5:	49 29 d2             	sub    %rdx,%r10
    35f8:	48 29 c1             	sub    %rax,%rcx
    35fb:	49 83 ea 09          	sub    $0x9,%r10
    35ff:	48 83 e9 09          	sub    $0x9,%rcx
    3603:	49 83 fa 0e          	cmp    $0xe,%r10
    3607:	0f 86 b3 01 00 00    	jbe    37c0 <__ctype_b_loc@plt+0xf10>
    360d:	48 39 f7             	cmp    %rsi,%rdi
    3610:	41 0f 96 c3          	setbe  %r11b
    3614:	48 83 f9 17          	cmp    $0x17,%rcx
    3618:	41 0f 97 c2          	seta   %r10b
    361c:	45 84 d3             	test   %r10b,%r11b
    361f:	0f 84 9b 01 00 00    	je     37c0 <__ctype_b_loc@plt+0xf10>
    3625:	48 c1 e9 03          	shr    $0x3,%rcx
    3629:	48 83 c1 01          	add    $0x1,%rcx
    362d:	48 39 f7             	cmp    %rsi,%rdi
    3630:	be 01 00 00 00       	mov    $0x1,%esi
    3635:	48 0f 46 f1          	cmovbe %rcx,%rsi
    3639:	b9 08 00 00 00       	mov    $0x8,%ecx
    363e:	48 89 f7             	mov    %rsi,%rdi
    3641:	48 d1 ef             	shr    %rdi
    3644:	48 c1 e7 04          	shl    $0x4,%rdi
    3648:	48 83 c7 08          	add    $0x8,%rdi
    364c:	0f 1f 40 00          	nopl   0x0(%rax)
    3650:	f3 0f 6f 14 0a       	movdqu (%rdx,%rcx,1),%xmm2
    3655:	0f 11 14 08          	movups %xmm2,(%rax,%rcx,1)
    3659:	48 83 c1 10          	add    $0x10,%rcx
    365d:	48 39 f9             	cmp    %rdi,%rcx
    3660:	75 ee                	jne    3650 <__ctype_b_loc@plt+0xda0>
    3662:	48 89 f0             	mov    %rsi,%rax
    3665:	48 83 e0 fe          	and    $0xfffffffffffffffe,%rax
    3669:	48 8d 14 c5 00 00 00 	lea    0x0(,%rax,8),%rdx
    3670:	00 
    3671:	49 01 d1             	add    %rdx,%r9
    3674:	4c 01 c2             	add    %r8,%rdx
    3677:	48 39 c6             	cmp    %rax,%rsi
    367a:	74 21                	je     369d <__ctype_b_loc@plt+0xded>
    367c:	49 8b 01             	mov    (%r9),%rax
    367f:	48 89 02             	mov    %rax,(%rdx)
    3682:	c3                   	ret    
    3683:	0f 1f 44 00 00       	nopl   0x0(%rax,%rax,1)
    3688:	49 83 c0 01          	add    $0x1,%r8
    368c:	48 83 c1 01          	add    $0x1,%rcx
    3690:	41 0f b6 40 ff       	movzbl -0x1(%r8),%eax
    3695:	88 41 ff             	mov    %al,-0x1(%rcx)
    3698:	48 39 ce             	cmp    %rcx,%rsi
    369b:	77 eb                	ja     3688 <__ctype_b_loc@plt+0xdd8>
    369d:	c3                   	ret    
    369e:	66 90                	xchg   %ax,%ax
    36a0:	48 39 c6             	cmp    %rax,%rsi
    36a3:	76 f8                	jbe    369d <__ctype_b_loc@plt+0xded>
    36a5:	4c 8d 52 01          	lea    0x1(%rdx),%r10
    36a9:	49 89 c0             	mov    %rax,%r8
    36ac:	48 8d 79 ff          	lea    -0x1(%rcx),%rdi
    36b0:	4d 29 d0             	sub    %r10,%r8
    36b3:	49 83 f8 0e          	cmp    $0xe,%r8
    36b7:	0f 86 bb 02 00 00    	jbe    3978 <__ctype_b_loc@plt+0x10c8>
    36bd:	48 83 ff 06          	cmp    $0x6,%rdi
    36c1:	0f 86 b1 02 00 00    	jbe    3978 <__ctype_b_loc@plt+0x10c8>
    36c7:	48 83 ff 0e          	cmp    $0xe,%rdi
    36cb:	0f 86 f0 02 00 00    	jbe    39c1 <__ctype_b_loc@plt+0x1111>
    36d1:	49 89 c8             	mov    %rcx,%r8
    36d4:	31 ff                	xor    %edi,%edi
    36d6:	49 83 e0 f0          	and    $0xfffffffffffffff0,%r8
    36da:	66 0f 1f 44 00 00    	nopw   0x0(%rax,%rax,1)
    36e0:	f3 0f 6f 0c 3a       	movdqu (%rdx,%rdi,1),%xmm1
    36e5:	0f 11 0c 38          	movups %xmm1,(%rax,%rdi,1)
    36e9:	48 83 c7 10          	add    $0x10,%rdi
    36ed:	4c 39 c7             	cmp    %r8,%rdi
    36f0:	75 ee                	jne    36e0 <__ctype_b_loc@plt+0xe30>
    36f2:	49 89 ca             	mov    %rcx,%r10
    36f5:	49 83 e2 f0          	and    $0xfffffffffffffff0,%r10
    36f9:	4a 8d 3c 10          	lea    (%rax,%r10,1),%rdi
    36fd:	4e 8d 04 12          	lea    (%rdx,%r10,1),%r8
    3701:	4c 39 d1             	cmp    %r10,%rcx
    3704:	74 97                	je     369d <__ctype_b_loc@plt+0xded>
    3706:	4c 29 d1             	sub    %r10,%rcx
    3709:	49 89 c9             	mov    %rcx,%r9
    370c:	48 8d 49 ff          	lea    -0x1(%rcx),%rcx
    3710:	48 83 f9 06          	cmp    $0x6,%rcx
    3714:	76 1e                	jbe    3734 <__ctype_b_loc@plt+0xe84>
    3716:	4a 8b 14 12          	mov    (%rdx,%r10,1),%rdx
    371a:	4a 89 14 10          	mov    %rdx,(%rax,%r10,1)
    371e:	4c 89 c8             	mov    %r9,%rax
    3721:	48 83 e0 f8          	and    $0xfffffffffffffff8,%rax
    3725:	48 01 c7             	add    %rax,%rdi
    3728:	49 01 c0             	add    %rax,%r8
    372b:	4c 39 c8             	cmp    %r9,%rax
    372e:	0f 84 69 ff ff ff    	je     369d <__ctype_b_loc@plt+0xded>
    3734:	41 0f b6 00          	movzbl (%r8),%eax
    3738:	88 07                	mov    %al,(%rdi)
    373a:	48 8d 47 01          	lea    0x1(%rdi),%rax
    373e:	48 39 c6             	cmp    %rax,%rsi
    3741:	0f 86 56 ff ff ff    	jbe    369d <__ctype_b_loc@plt+0xded>
    3747:	41 0f b6 40 01       	movzbl 0x1(%r8),%eax
    374c:	88 47 01             	mov    %al,0x1(%rdi)
    374f:	48 8d 47 02          	lea    0x2(%rdi),%rax
    3753:	48 39 c6             	cmp    %rax,%rsi
    3756:	0f 86 41 ff ff ff    	jbe    369d <__ctype_b_loc@plt+0xded>
    375c:	41 0f b6 40 02       	movzbl 0x2(%r8),%eax
    3761:	88 47 02             	mov    %al,0x2(%rdi)
    3764:	48 8d 47 03          	lea    0x3(%rdi),%rax
    3768:	48 39 c6             	cmp    %rax,%rsi
    376b:	0f 86 2c ff ff ff    	jbe    369d <__ctype_b_loc@plt+0xded>
    3771:	41 0f b6 40 03       	movzbl 0x3(%r8),%eax
    3776:	88 47 03             	mov    %al,0x3(%rdi)
    3779:	48 8d 47 04          	lea    0x4(%rdi),%rax
    377d:	48 39 c6             	cmp    %rax,%rsi
    3780:	0f 86 17 ff ff ff    	jbe    369d <__ctype_b_loc@plt+0xded>
    3786:	41 0f b6 40 04       	movzbl 0x4(%r8),%eax
    378b:	88 47 04             	mov    %al,0x4(%rdi)
    378e:	48 8d 47 05          	lea    0x5(%rdi),%rax
    3792:	48 39 c6             	cmp    %rax,%rsi
    3795:	0f 86 02 ff ff ff    	jbe    369d <__ctype_b_loc@plt+0xded>
    379b:	41 0f b6 40 05       	movzbl 0x5(%r8),%eax
    37a0:	88 47 05             	mov    %al,0x5(%rdi)
    37a3:	48 8d 47 06          	lea    0x6(%rdi),%rax
    37a7:	48 39 c6             	cmp    %rax,%rsi
    37aa:	0f 86 ed fe ff ff    	jbe    369d <__ctype_b_loc@plt+0xded>
    37b0:	41 0f b6 40 06       	movzbl 0x6(%r8),%eax
    37b5:	88 47 06             	mov    %al,0x6(%rdi)
    37b8:	c3                   	ret    
    37b9:	0f 1f 80 00 00 00 00 	nopl   0x0(%rax)
    37c0:	49 8b 01             	mov    (%r9),%rax
    37c3:	49 83 c0 08          	add    $0x8,%r8
    37c7:	49 83 c1 08          	add    $0x8,%r9
    37cb:	49 89 40 f8          	mov    %rax,-0x8(%r8)
    37cf:	4c 39 c6             	cmp    %r8,%rsi
    37d2:	77 ec                	ja     37c0 <__ctype_b_loc@plt+0xf10>
    37d4:	c3                   	ret    
    37d5:	0f 1f 00             	nopl   (%rax)
    37d8:	44 0f b6 0a          	movzbl (%rdx),%r9d
    37dc:	44 88 08             	mov    %r9b,(%rax)
    37df:	44 0f b6 4a 01       	movzbl 0x1(%rdx),%r9d
    37e4:	44 88 48 01          	mov    %r9b,0x1(%rax)
    37e8:	44 0f b6 4a 02       	movzbl 0x2(%rdx),%r9d
    37ed:	44 88 48 02          	mov    %r9b,0x2(%rax)
    37f1:	44 0f b6 4a 03       	movzbl 0x3(%rdx),%r9d
    37f6:	44 88 48 03          	mov    %r9b,0x3(%rax)
    37fa:	4c 8d 0d 7f b8 01 00 	lea    0x1b87f(%rip),%r9        # 1f080 <__ctype_b_loc@plt+0x1c7d0>
    3801:	47 8b 0c 81          	mov    (%r9,%r8,4),%r9d
    3805:	4c 01 ca             	add    %r9,%rdx
    3808:	44 8b 0a             	mov    (%rdx),%r9d
    380b:	44 89 48 04          	mov    %r9d,0x4(%rax)
    380f:	4c 8d 0d 8a b8 01 00 	lea    0x1b88a(%rip),%r9        # 1f0a0 <__ctype_b_loc@plt+0x1c7f0>
    3816:	4f 63 04 81          	movslq (%r9,%r8,4),%r8
    381a:	4c 29 c2             	sub    %r8,%rdx
    381d:	e9 a4 fd ff ff       	jmp    35c6 <__ctype_b_loc@plt+0xd16>
    3822:	66 0f 1f 44 00 00    	nopw   0x0(%rax,%rax,1)
    3828:	4c 39 c7             	cmp    %r8,%rdi
    382b:	0f 82 a7 01 00 00    	jb     39d8 <__ctype_b_loc@plt+0x1128>
    3831:	48 89 c1             	mov    %rax,%rcx
    3834:	49 89 fa             	mov    %rdi,%r10
    3837:	48 29 d1             	sub    %rdx,%rcx
    383a:	4d 29 c2             	sub    %r8,%r10
    383d:	48 83 f9 0f          	cmp    $0xf,%rcx
    3841:	0f 8f 89 01 00 00    	jg     39d0 <__ctype_b_loc@plt+0x1120>
    3847:	4d 89 c3             	mov    %r8,%r11
    384a:	48 8d 4f ff          	lea    -0x1(%rdi),%rcx
    384e:	48 83 c0 09          	add    $0x9,%rax
    3852:	49 29 d3             	sub    %rdx,%r11
    3855:	4c 29 c1             	sub    %r8,%rcx
    3858:	49 8d 53 f7          	lea    -0x9(%r11),%rdx
    385c:	48 83 fa 0e          	cmp    $0xe,%rdx
    3860:	41 0f 97 c3          	seta   %r11b
    3864:	48 83 f9 17          	cmp    $0x17,%rcx
    3868:	0f 97 c2             	seta   %dl
    386b:	41 84 d3             	test   %dl,%r11b
    386e:	0f 84 2c 01 00 00    	je     39a0 <__ctype_b_loc@plt+0x10f0>
    3874:	48 39 f8             	cmp    %rdi,%rax
    3877:	0f 87 23 01 00 00    	ja     39a0 <__ctype_b_loc@plt+0x10f0>
    387d:	48 c1 e9 03          	shr    $0x3,%rcx
    3881:	48 39 f8             	cmp    %rdi,%rax
    3884:	b8 01 00 00 00       	mov    $0x1,%eax
    3889:	48 8d 51 01          	lea    0x1(%rcx),%rdx
    388d:	48 0f 47 d0          	cmova  %rax,%rdx
    3891:	31 c0                	xor    %eax,%eax
    3893:	48 89 d1             	mov    %rdx,%rcx
    3896:	48 d1 e9             	shr    %rcx
    3899:	48 c1 e1 04          	shl    $0x4,%rcx
    389d:	0f 1f 00             	nopl   (%rax)
    38a0:	f3 41 0f 6f 1c 01    	movdqu (%r9,%rax,1),%xmm3
    38a6:	41 0f 11 1c 00       	movups %xmm3,(%r8,%rax,1)
    38ab:	48 83 c0 10          	add    $0x10,%rax
    38af:	48 39 c8             	cmp    %rcx,%rax
    38b2:	75 ec                	jne    38a0 <__ctype_b_loc@plt+0xff0>
    38b4:	49 89 d3             	mov    %rdx,%r11
    38b7:	49 83 e3 fe          	and    $0xfffffffffffffffe,%r11
    38bb:	4a 8d 0c dd 00 00 00 	lea    0x0(,%r11,8),%rcx
    38c2:	00 
    38c3:	49 8d 04 09          	lea    (%r9,%rcx,1),%rax
    38c7:	4c 01 c1             	add    %r8,%rcx
    38ca:	4c 39 da             	cmp    %r11,%rdx
    38cd:	74 06                	je     38d5 <__ctype_b_loc@plt+0x1025>
    38cf:	48 8b 00             	mov    (%rax),%rax
    38d2:	48 89 01             	mov    %rax,(%rcx)
    38d5:	4b 8d 14 11          	lea    (%r9,%r10,1),%rdx
    38d9:	48 89 f8             	mov    %rdi,%rax
    38dc:	e9 8b fb ff ff       	jmp    346c <__ctype_b_loc@plt+0xbbc>
    38e1:	4c 89 ca             	mov    %r9,%rdx
    38e4:	4c 89 c0             	mov    %r8,%rax
    38e7:	66 0f 1f 84 00 00 00 	nopw   0x0(%rax,%rax,1)
    38ee:	00 00 
    38f0:	f3 0f 6f 32          	movdqu (%rdx),%xmm6
    38f4:	0f 11 30             	movups %xmm6,(%rax)
    38f7:	48 83 f9 10          	cmp    $0x10,%rcx
    38fb:	0f 8e 9c fd ff ff    	jle    369d <__ctype_b_loc@plt+0xded>
    3901:	48 83 c0 10          	add    $0x10,%rax
    3905:	48 83 c2 10          	add    $0x10,%rdx
    3909:	0f 1f 80 00 00 00 00 	nopl   0x0(%rax)
    3910:	f3 0f 6f 22          	movdqu (%rdx),%xmm4
    3914:	48 83 c0 20          	add    $0x20,%rax
    3918:	48 83 c2 20          	add    $0x20,%rdx
    391c:	0f 11 60 e0          	movups %xmm4,-0x20(%rax)
    3920:	f3 0f 6f 6a f0       	movdqu -0x10(%rdx),%xmm5
    3925:	0f 11 68 f0          	movups %xmm5,-0x10(%rax)
    3929:	48 39 c6             	cmp    %rax,%rsi
    392c:	77 e2                	ja     3910 <__ctype_b_loc@plt+0x1060>
    392e:	c3                   	ret    
    392f:	90                   	nop
    3930:	49 89 fa             	mov    %rdi,%r10
    3933:	49 89 d1             	mov    %rdx,%r9
    3936:	49 29 c2             	sub    %rax,%r10
    3939:	f3 41 0f 6f 39       	movdqu (%r9),%xmm7
    393e:	0f 11 38             	movups %xmm7,(%rax)
    3941:	49 83 fa 10          	cmp    $0x10,%r10
    3945:	7e 8e                	jle    38d5 <__ctype_b_loc@plt+0x1025>
    3947:	48 83 c0 10          	add    $0x10,%rax
    394b:	49 8d 51 10          	lea    0x10(%r9),%rdx
    394f:	90                   	nop
    3950:	f3 0f 6f 32          	movdqu (%rdx),%xmm6
    3954:	48 83 c0 20          	add    $0x20,%rax
    3958:	48 83 c2 20          	add    $0x20,%rdx
    395c:	0f 11 70 e0          	movups %xmm6,-0x20(%rax)
    3960:	f3 0f 6f 7a f0       	movdqu -0x10(%rdx),%xmm7
    3965:	0f 11 78 f0          	movups %xmm7,-0x10(%rax)
    3969:	48 39 c7             	cmp    %rax,%rdi
    396c:	77 e2                	ja     3950 <__ctype_b_loc@plt+0x10a0>
    396e:	e9 62 ff ff ff       	jmp    38d5 <__ctype_b_loc@plt+0x1025>
    3973:	0f 1f 44 00 00       	nopl   0x0(%rax,%rax,1)
    3978:	31 f6                	xor    %esi,%esi
    397a:	66 0f 1f 44 00 00    	nopw   0x0(%rax,%rax,1)
    3980:	0f b6 3c 32          	movzbl (%rdx,%rsi,1),%edi
    3984:	40 88 3c 30          	mov    %dil,(%rax,%rsi,1)
    3988:	48 83 c6 01          	add    $0x1,%rsi
    398c:	48 39 f1             	cmp    %rsi,%rcx
    398f:	75 ef                	jne    3980 <__ctype_b_loc@plt+0x10d0>
    3991:	c3                   	ret    
    3992:	49 89 d1             	mov    %rdx,%r9
    3995:	48 89 c1             	mov    %rax,%rcx
    3998:	45 31 c0             	xor    %r8d,%r8d
    399b:	e9 52 fb ff ff       	jmp    34f2 <__ctype_b_loc@plt+0xc42>
    39a0:	4c 89 c8             	mov    %r9,%rax
    39a3:	0f 1f 44 00 00       	nopl   0x0(%rax,%rax,1)
    39a8:	48 8b 10             	mov    (%rax),%rdx
    39ab:	49 83 c0 08          	add    $0x8,%r8
    39af:	48 83 c0 08          	add    $0x8,%rax
    39b3:	49 89 50 f8          	mov    %rdx,-0x8(%r8)
    39b7:	4c 39 c7             	cmp    %r8,%rdi
    39ba:	77 ec                	ja     39a8 <__ctype_b_loc@plt+0x10f8>
    39bc:	e9 14 ff ff ff       	jmp    38d5 <__ctype_b_loc@plt+0x1025>
    39c1:	49 89 d0             	mov    %rdx,%r8
    39c4:	48 89 c7             	mov    %rax,%rdi
    39c7:	45 31 d2             	xor    %r10d,%r10d
    39ca:	e9 47 fd ff ff       	jmp    3716 <__ctype_b_loc@plt+0xe66>
    39cf:	c3                   	ret    
    39d0:	4c 89 c0             	mov    %r8,%rax
    39d3:	e9 61 ff ff ff       	jmp    3939 <__ctype_b_loc@plt+0x1089>
    39d8:	4c 89 ca             	mov    %r9,%rdx
    39db:	4c 89 c0             	mov    %r8,%rax
    39de:	e9 80 fa ff ff       	jmp    3463 <__ctype_b_loc@plt+0xbb3>
    39e3:	66 66 2e 0f 1f 84 00 	data16 cs nopw 0x0(%rax,%rax,1)
    39ea:	00 00 00 00 
    39ee:	66 90                	xchg   %ax,%ax
    39f0:	41 57                	push   %r15
    39f2:	49 89 fb             	mov    %rdi,%r11
    39f5:	49 89 f2             	mov    %rsi,%r10
    39f8:	48 c7 c0 d2 ff ff ff 	mov    $0xffffffffffffffd2,%rax
    39ff:	41 56                	push   %r14
    3a01:	41 55                	push   %r13
    3a03:	41 54                	push   %r12
    3a05:	55                   	push   %rbp
    3a06:	53                   	push   %rbx
    3a07:	89 d3                	mov    %edx,%ebx
    3a09:	ba 01 00 00 00       	mov    $0x1,%edx
    3a0e:	48 8d 7b 01          	lea    0x1(%rbx),%rdi
    3a12:	48 d3 e2             	shl    %cl,%rdx
    3a15:	89 fe                	mov    %edi,%esi
    3a17:	48 8d 54 72 08       	lea    0x8(%rdx,%rsi,2),%rdx
    3a1c:	89 4c 24 e8          	mov    %ecx,-0x18(%rsp)
    3a20:	4c 39 ca             	cmp    %r9,%rdx
    3a23:	41 0f 97 c1          	seta   %r9b
    3a27:	81 fb ff 00 00 00    	cmp    $0xff,%ebx
    3a2d:	0f 97 c2             	seta   %dl
    3a30:	41 08 d1             	or     %dl,%r9b
    3a33:	0f 85 75 01 00 00    	jne    3bae <__ctype_b_loc@plt+0x12fe>
    3a39:	48 c7 c0 d4 ff ff ff 	mov    $0xffffffffffffffd4,%rax
    3a40:	83 f9 0c             	cmp    $0xc,%ecx
    3a43:	0f 87 65 01 00 00    	ja     3bae <__ctype_b_loc@plt+0x12fe>
    3a49:	49 8d 04 78          	lea    (%r8,%rdi,2),%rax
    3a4d:	0f b7 d1             	movzwl %cx,%edx
    3a50:	4c 89 c5             	mov    %r8,%rbp
    3a53:	41 bc 01 00 00 00    	mov    $0x1,%r12d
    3a59:	48 89 44 24 f0       	mov    %rax,-0x10(%rsp)
    3a5e:	b8 01 00 00 00       	mov    $0x1,%eax
    3a63:	49 8d 73 04          	lea    0x4(%r11),%rsi
    3a67:	45 31 ed             	xor    %r13d,%r13d
    3a6a:	41 89 c6             	mov    %eax,%r14d
    3a6d:	81 ca 00 00 01 00    	or     $0x10000,%edx
    3a73:	41 d3 e6             	shl    %cl,%r14d
    3a76:	83 e9 01             	sub    $0x1,%ecx
    3a79:	89 54 24 f8          	mov    %edx,-0x8(%rsp)
    3a7d:	d3 e0                	shl    %cl,%eax
    3a7f:	89 54 24 ec          	mov    %edx,-0x14(%rsp)
    3a83:	44 89 f2             	mov    %r14d,%edx
    3a86:	41 8d 7e ff          	lea    -0x1(%r14),%edi
    3a8a:	41 89 c7             	mov    %eax,%r15d
    3a8d:	44 89 f0             	mov    %r14d,%eax
    3a90:	d1 ea                	shr    %edx
    3a92:	31 c9                	xor    %ecx,%ecx
    3a94:	c1 e8 03             	shr    $0x3,%eax
    3a97:	8d 54 02 03          	lea    0x3(%rdx,%rax,1),%edx
    3a9b:	89 f8                	mov    %edi,%eax
    3a9d:	eb 21                	jmp    3ac0 <__ctype_b_loc@plt+0x1210>
    3a9f:	90                   	nop
    3aa0:	66 45 39 f8          	cmp    %r15w,%r8w
    3aa4:	66 44 89 44 4d 00    	mov    %r8w,0x0(%rbp,%rcx,2)
    3aaa:	41 b9 01 00 00 00    	mov    $0x1,%r9d
    3ab0:	4c 8d 41 01          	lea    0x1(%rcx),%r8
    3ab4:	45 0f 4d e5          	cmovge %r13d,%r12d
    3ab8:	48 39 cb             	cmp    %rcx,%rbx
    3abb:	74 2f                	je     3aec <__ctype_b_loc@plt+0x123c>
    3abd:	4c 89 c1             	mov    %r8,%rcx
    3ac0:	45 0f b7 04 4a       	movzwl (%r10,%rcx,2),%r8d
    3ac5:	66 41 83 f8 ff       	cmp    $0xffff,%r8w
    3aca:	75 d4                	jne    3aa0 <__ctype_b_loc@plt+0x11f0>
    3acc:	41 89 c0             	mov    %eax,%r8d
    3acf:	83 e8 01             	sub    $0x1,%eax
    3ad2:	42 88 4c 86 02       	mov    %cl,0x2(%rsi,%r8,4)
    3ad7:	41 b8 01 00 00 00    	mov    $0x1,%r8d
    3add:	66 44 89 44 4d 00    	mov    %r8w,0x0(%rbp,%rcx,2)
    3ae3:	4c 8d 41 01          	lea    0x1(%rcx),%r8
    3ae7:	48 39 cb             	cmp    %rcx,%rbx
    3aea:	75 d1                	jne    3abd <__ctype_b_loc@plt+0x120d>
    3aec:	45 84 c9             	test   %r9b,%r9b
    3aef:	74 10                	je     3b01 <__ctype_b_loc@plt+0x1251>
    3af1:	0f b7 4c 24 f8       	movzwl -0x8(%rsp),%ecx
    3af6:	41 c1 e4 10          	shl    $0x10,%r12d
    3afa:	44 09 e1             	or     %r12d,%ecx
    3afd:	89 4c 24 ec          	mov    %ecx,-0x14(%rsp)
    3b01:	8b 4c 24 ec          	mov    -0x14(%rsp),%ecx
    3b05:	41 89 0b             	mov    %ecx,(%r11)
    3b08:	39 f8                	cmp    %edi,%eax
    3b0a:	0f 84 a9 00 00 00    	je     3bb9 <__ctype_b_loc@plt+0x1309>
    3b10:	45 31 ff             	xor    %r15d,%r15d
    3b13:	31 c9                	xor    %ecx,%ecx
    3b15:	0f 1f 00             	nopl   (%rax)
    3b18:	47 0f bf 0c 7a       	movswl (%r10,%r15,2),%r9d
    3b1d:	45 89 fc             	mov    %r15d,%r12d
    3b20:	45 31 c0             	xor    %r8d,%r8d
    3b23:	45 85 c9             	test   %r9d,%r9d
    3b26:	7e 29                	jle    3b51 <__ctype_b_loc@plt+0x12a1>
    3b28:	0f 1f 84 00 00 00 00 	nopl   0x0(%rax,%rax,1)
    3b2f:	00 
    3b30:	41 89 cd             	mov    %ecx,%r13d
    3b33:	46 88 64 ae 02       	mov    %r12b,0x2(%rsi,%r13,4)
    3b38:	0f 1f 84 00 00 00 00 	nopl   0x0(%rax,%rax,1)
    3b3f:	00 
    3b40:	01 d1                	add    %edx,%ecx
    3b42:	21 f9                	and    %edi,%ecx
    3b44:	39 c8                	cmp    %ecx,%eax
    3b46:	72 f8                	jb     3b40 <__ctype_b_loc@plt+0x1290>
    3b48:	41 83 c0 01          	add    $0x1,%r8d
    3b4c:	45 39 c8             	cmp    %r9d,%r8d
    3b4f:	75 df                	jne    3b30 <__ctype_b_loc@plt+0x1280>
    3b51:	4d 8d 47 01          	lea    0x1(%r15),%r8
    3b55:	4c 39 fb             	cmp    %r15,%rbx
    3b58:	74 05                	je     3b5f <__ctype_b_loc@plt+0x12af>
    3b5a:	4d 89 c7             	mov    %r8,%r15
    3b5d:	eb b9                	jmp    3b18 <__ctype_b_loc@plt+0x1268>
    3b5f:	48 c7 c0 ff ff ff ff 	mov    $0xffffffffffffffff,%rax
    3b66:	85 c9                	test   %ecx,%ecx
    3b68:	75 44                	jne    3bae <__ctype_b_loc@plt+0x12fe>
    3b6a:	44 0f b6 44 24 e8    	movzbl -0x18(%rsp),%r8d
    3b70:	44 89 f7             	mov    %r14d,%edi
    3b73:	31 d2                	xor    %edx,%edx
    3b75:	0f 1f 00             	nopl   (%rax)
    3b78:	41 0f b6 44 93 06    	movzbl 0x6(%r11,%rdx,4),%eax
    3b7e:	48 8d 4c 45 00       	lea    0x0(%rbp,%rax,2),%rcx
    3b83:	0f b7 01             	movzwl (%rcx),%eax
    3b86:	8d 70 01             	lea    0x1(%rax),%esi
    3b89:	66 89 31             	mov    %si,(%rcx)
    3b8c:	0f bd f0             	bsr    %eax,%esi
    3b8f:	44 89 c1             	mov    %r8d,%ecx
    3b92:	29 f1                	sub    %esi,%ecx
    3b94:	d3 e0                	shl    %cl,%eax
    3b96:	41 88 4c 93 07       	mov    %cl,0x7(%r11,%rdx,4)
    3b9b:	29 f8                	sub    %edi,%eax
    3b9d:	66 41 89 44 93 04    	mov    %ax,0x4(%r11,%rdx,4)
    3ba3:	48 83 c2 01          	add    $0x1,%rdx
    3ba7:	41 39 d6             	cmp    %edx,%r14d
    3baa:	77 cc                	ja     3b78 <__ctype_b_loc@plt+0x12c8>
    3bac:	31 c0                	xor    %eax,%eax
    3bae:	5b                   	pop    %rbx
    3baf:	5d                   	pop    %rbp
    3bb0:	41 5c                	pop    %r12
    3bb2:	41 5d                	pop    %r13
    3bb4:	41 5e                	pop    %r14
    3bb6:	41 5f                	pop    %r15
    3bb8:	c3                   	ret    
    3bb9:	49 8d 5c 5a 02       	lea    0x2(%r10,%rbx,2),%rbx
    3bbe:	44 89 74 24 ec       	mov    %r14d,-0x14(%rsp)
    3bc3:	4d 89 d1             	mov    %r10,%r9
    3bc6:	45 31 ed             	xor    %r13d,%r13d
    3bc9:	4c 8b 74 24 f0       	mov    -0x10(%rsp),%r14
    3bce:	48 89 44 24 f8       	mov    %rax,-0x8(%rsp)
    3bd3:	45 31 d2             	xor    %r10d,%r10d
    3bd6:	49 bf 01 01 01 01 01 	movabs $0x101010101010101,%r15
    3bdd:	01 01 01 
    3be0:	48 89 d8             	mov    %rbx,%rax
    3be3:	49 0f bf 19          	movswq (%r9),%rbx
    3be7:	b9 08 00 00 00       	mov    $0x8,%ecx
    3bec:	4f 89 14 2e          	mov    %r10,(%r14,%r13,1)
    3bf0:	4f 8d 04 2e          	lea    (%r14,%r13,1),%r8
    3bf4:	49 89 dc             	mov    %rbx,%r12
    3bf7:	66 83 fb 08          	cmp    $0x8,%bx
    3bfb:	7e 11                	jle    3c0e <__ctype_b_loc@plt+0x135e>
    3bfd:	0f 1f 00             	nopl   (%rax)
    3c00:	48 63 f9             	movslq %ecx,%rdi
    3c03:	83 c1 08             	add    $0x8,%ecx
    3c06:	4d 89 14 38          	mov    %r10,(%r8,%rdi,1)
    3c0a:	39 cb                	cmp    %ecx,%ebx
    3c0c:	7f f2                	jg     3c00 <__ctype_b_loc@plt+0x1350>
    3c0e:	49 83 c1 02          	add    $0x2,%r9
    3c12:	4d 01 e5             	add    %r12,%r13
    3c15:	4d 01 fa             	add    %r15,%r10
    3c18:	4c 39 c8             	cmp    %r9,%rax
    3c1b:	75 c6                	jne    3be3 <__ctype_b_loc@plt+0x1333>
    3c1d:	4c 63 44 24 ec       	movslq -0x14(%rsp),%r8
    3c22:	48 8b 7c 24 f0       	mov    -0x10(%rsp),%rdi
    3c27:	31 c9                	xor    %ecx,%ecx
    3c29:	48 8b 44 24 f8       	mov    -0x8(%rsp),%rax
    3c2e:	4d 89 c6             	mov    %r8,%r14
    3c31:	49 83 e8 01          	sub    $0x1,%r8
    3c35:	49 83 e0 fe          	and    $0xfffffffffffffffe,%r8
    3c39:	49 01 f8             	add    %rdi,%r8
    3c3c:	0f b6 1f             	movzbl (%rdi),%ebx
    3c3f:	49 89 c2             	mov    %rax,%r10
    3c42:	49 89 f9             	mov    %rdi,%r9
    3c45:	48 83 c7 02          	add    $0x2,%rdi
    3c49:	49 21 ca             	and    %rcx,%r10
    3c4c:	48 01 d1             	add    %rdx,%rcx
    3c4f:	42 88 5c 96 02       	mov    %bl,0x2(%rsi,%r10,4)
    3c54:	49 89 c2             	mov    %rax,%r10
    3c57:	0f b6 5f ff          	movzbl -0x1(%rdi),%ebx
    3c5b:	49 21 ca             	and    %rcx,%r10
    3c5e:	48 01 d1             	add    %rdx,%rcx
    3c61:	42 88 5c 96 02       	mov    %bl,0x2(%rsi,%r10,4)
    3c66:	48 21 c1             	and    %rax,%rcx
    3c69:	4d 39 c1             	cmp    %r8,%r9
    3c6c:	75 ce                	jne    3c3c <__ctype_b_loc@plt+0x138c>
    3c6e:	e9 f7 fe ff ff       	jmp    3b6a <__ctype_b_loc@plt+0x12ba>
    3c73:	66 66 2e 0f 1f 84 00 	data16 cs nopw 0x0(%rax,%rax,1)
    3c7a:	00 00 00 00 
    3c7e:	66 90                	xchg   %ax,%ax
    3c80:	50                   	push   %rax
    3c81:	58                   	pop    %rax
    3c82:	48 83 ec 08          	sub    $0x8,%rsp
    3c86:	e8 95 e8 ff ff       	call   2520 <puts@plt>
    3c8b:	bf 02 00 00 00       	mov    $0x2,%edi
    3c90:	e8 9b eb ff ff       	call   2830 <exit@plt>
    3c95:	66 66 2e 0f 1f 84 00 	data16 cs nopw 0x0(%rax,%rax,1)
    3c9c:	00 00 00 00 
    3ca0:	41 57                	push   %r15
    3ca2:	41 56                	push   %r14
    3ca4:	41 55                	push   %r13
    3ca6:	41 54                	push   %r12
    3ca8:	49 89 fc             	mov    %rdi,%r12
    3cab:	55                   	push   %rbp
    3cac:	53                   	push   %rbx
    3cad:	48 81 ec a8 00 00 00 	sub    $0xa8,%rsp
    3cb4:	64 48 8b 04 25 28 00 	mov    %fs:0x28,%rax
    3cbb:	00 00 
    3cbd:	48 89 84 24 98 00 00 	mov    %rax,0x98(%rsp)
    3cc4:	00 
    3cc5:	31 c0                	xor    %eax,%eax
    3cc7:	e8 c4 e8 ff ff       	call   2590 <opendir@plt>
    3ccc:	4c 89 e7             	mov    %r12,%rdi
    3ccf:	48 89 c5             	mov    %rax,%rbp
    3cd2:	e8 e9 e8 ff ff       	call   25c0 <strlen@plt>
    3cd7:	48 85 ed             	test   %rbp,%rbp
    3cda:	0f 84 47 01 00 00    	je     3e27 <__ctype_b_loc@plt+0x1577>
    3ce0:	4c 8d 68 02          	lea    0x2(%rax),%r13
    3ce4:	48 89 ef             	mov    %rbp,%rdi
    3ce7:	e8 44 ea ff ff       	call   2730 <readdir@plt>
    3cec:	48 85 c0             	test   %rax,%rax
    3cef:	0f 84 0b 01 00 00    	je     3e00 <__ctype_b_loc@plt+0x1550>
    3cf5:	80 78 13 2e          	cmpb   $0x2e,0x13(%rax)
    3cf9:	48 8d 58 13          	lea    0x13(%rax),%rbx
    3cfd:	75 06                	jne    3d05 <__ctype_b_loc@plt+0x1455>
    3cff:	80 7b 01 00          	cmpb   $0x0,0x1(%rbx)
    3d03:	74 df                	je     3ce4 <__ctype_b_loc@plt+0x1434>
    3d05:	80 78 13 2e          	cmpb   $0x2e,0x13(%rax)
    3d09:	75 15                	jne    3d20 <__ctype_b_loc@plt+0x1470>
    3d0b:	80 7b 01 2e          	cmpb   $0x2e,0x1(%rbx)
    3d0f:	75 0f                	jne    3d20 <__ctype_b_loc@plt+0x1470>
    3d11:	80 7b 02 00          	cmpb   $0x0,0x2(%rbx)
    3d15:	74 cd                	je     3ce4 <__ctype_b_loc@plt+0x1434>
    3d17:	66 0f 1f 84 00 00 00 	nopw   0x0(%rax,%rax,1)
    3d1e:	00 00 
    3d20:	48 89 df             	mov    %rbx,%rdi
    3d23:	e8 98 e8 ff ff       	call   25c0 <strlen@plt>
    3d28:	4d 8d 7c 05 00       	lea    0x0(%r13,%rax,1),%r15
    3d2d:	4c 89 ff             	mov    %r15,%rdi
    3d30:	e8 0b ea ff ff       	call   2740 <malloc@plt>
    3d35:	49 89 c6             	mov    %rax,%r14
    3d38:	48 85 c0             	test   %rax,%rax
    3d3b:	0f 84 f6 00 00 00    	je     3e37 <__ctype_b_loc@plt+0x1587>
    3d41:	48 83 ec 08          	sub    $0x8,%rsp
    3d45:	ba 01 00 00 00       	mov    $0x1,%edx
    3d4a:	48 89 c7             	mov    %rax,%rdi
    3d4d:	4d 89 e1             	mov    %r12,%r9
    3d50:	53                   	push   %rbx
    3d51:	48 c7 c1 ff ff ff ff 	mov    $0xffffffffffffffff,%rcx
    3d58:	4c 89 fe             	mov    %r15,%rsi
    3d5b:	31 c0                	xor    %eax,%eax
    3d5d:	4c 8d 05 38 a6 01 00 	lea    0x1a638(%rip),%r8        # 1e39c <__ctype_b_loc@plt+0x1baec>
    3d64:	e8 27 e7 ff ff       	call   2490 <__snprintf_chk@plt>
    3d69:	48 8d 74 24 10       	lea    0x10(%rsp),%rsi
    3d6e:	4c 89 f7             	mov    %r14,%rdi
    3d71:	e8 7a e9 ff ff       	call   26f0 <stat@plt>
    3d76:	5a                   	pop    %rdx
    3d77:	59                   	pop    %rcx
    3d78:	85 c0                	test   %eax,%eax
    3d7a:	74 44                	je     3dc0 <__ctype_b_loc@plt+0x1510>
    3d7c:	4c 89 f7             	mov    %r14,%rdi
    3d7f:	41 bf ff ff ff ff    	mov    $0xffffffff,%r15d
    3d85:	e8 16 e7 ff ff       	call   24a0 <free@plt>
    3d8a:	48 89 ef             	mov    %rbp,%rdi
    3d8d:	e8 fe e8 ff ff       	call   2690 <closedir@plt>
    3d92:	48 8b 84 24 98 00 00 	mov    0x98(%rsp),%rax
    3d99:	00 
    3d9a:	64 48 2b 04 25 28 00 	sub    %fs:0x28,%rax
    3da1:	00 00 
    3da3:	0f 85 89 00 00 00    	jne    3e32 <__ctype_b_loc@plt+0x1582>
    3da9:	48 81 c4 a8 00 00 00 	add    $0xa8,%rsp
    3db0:	44 89 f8             	mov    %r15d,%eax
    3db3:	5b                   	pop    %rbx
    3db4:	5d                   	pop    %rbp
    3db5:	41 5c                	pop    %r12
    3db7:	41 5d                	pop    %r13
    3db9:	41 5e                	pop    %r14
    3dbb:	41 5f                	pop    %r15
    3dbd:	c3                   	ret    
    3dbe:	66 90                	xchg   %ax,%ax
    3dc0:	8b 44 24 18          	mov    0x18(%rsp),%eax
    3dc4:	4c 89 f7             	mov    %r14,%rdi
    3dc7:	25 00 f0 00 00       	and    $0xf000,%eax
    3dcc:	3d 00 40 00 00       	cmp    $0x4000,%eax
    3dd1:	74 4d                	je     3e20 <__ctype_b_loc@plt+0x1570>
    3dd3:	e8 08 e7 ff ff       	call   24e0 <unlink@plt>
    3dd8:	41 89 c7             	mov    %eax,%r15d
    3ddb:	4c 89 f7             	mov    %r14,%rdi
    3dde:	e8 bd e6 ff ff       	call   24a0 <free@plt>
    3de3:	45 85 ff             	test   %r15d,%r15d
    3de6:	75 a2                	jne    3d8a <__ctype_b_loc@plt+0x14da>
    3de8:	48 89 ef             	mov    %rbp,%rdi
    3deb:	e8 40 e9 ff ff       	call   2730 <readdir@plt>
    3df0:	48 85 c0             	test   %rax,%rax
    3df3:	0f 85 fc fe ff ff    	jne    3cf5 <__ctype_b_loc@plt+0x1445>
    3df9:	0f 1f 80 00 00 00 00 	nopl   0x0(%rax)
    3e00:	48 89 ef             	mov    %rbp,%rdi
    3e03:	45 31 ff             	xor    %r15d,%r15d
    3e06:	e8 85 e8 ff ff       	call   2690 <closedir@plt>
    3e0b:	4c 89 e7             	mov    %r12,%rdi
    3e0e:	e8 9d e7 ff ff       	call   25b0 <rmdir@plt>
    3e13:	e9 7a ff ff ff       	jmp    3d92 <__ctype_b_loc@plt+0x14e2>
    3e18:	0f 1f 84 00 00 00 00 	nopl   0x0(%rax,%rax,1)
    3e1f:	00 
    3e20:	e8 7b fe ff ff       	call   3ca0 <__ctype_b_loc@plt+0x13f0>
    3e25:	eb b1                	jmp    3dd8 <__ctype_b_loc@plt+0x1528>
    3e27:	41 bf ff ff ff ff    	mov    $0xffffffff,%r15d
    3e2d:	e9 60 ff ff ff       	jmp    3d92 <__ctype_b_loc@plt+0x14e2>
    3e32:	e8 99 e7 ff ff       	call   25d0 <__stack_chk_fail@plt>
    3e37:	48 8d 3d ca a1 01 00 	lea    0x1a1ca(%rip),%rdi        # 1e008 <__ctype_b_loc@plt+0x1b758>
    3e3e:	e8 3d fe ff ff       	call   3c80 <__ctype_b_loc@plt+0x13d0>
    3e43:	66 66 2e 0f 1f 84 00 	data16 cs nopw 0x0(%rax,%rax,1)
    3e4a:	00 00 00 00 
    3e4e:	66 90                	xchg   %ax,%ax
    3e50:	48 89 f1             	mov    %rsi,%rcx
    3e53:	48 89 d0             	mov    %rdx,%rax
    3e56:	48 85 d2             	test   %rdx,%rdx
    3e59:	0f 84 11 01 00 00    	je     3f70 <__ctype_b_loc@plt+0x16c0>
    3e5f:	48 8d 56 08          	lea    0x8(%rsi),%rdx
    3e63:	66 48 0f 6e c6       	movq   %rsi,%xmm0
    3e68:	48 8d 74 06 ff       	lea    -0x1(%rsi,%rax,1),%rsi
    3e6d:	66 48 0f 6e ca       	movq   %rdx,%xmm1
    3e72:	66 0f 6c c1          	punpcklqdq %xmm1,%xmm0
    3e76:	0f 11 47 18          	movups %xmm0,0x18(%rdi)
    3e7a:	48 83 f8 07          	cmp    $0x7,%rax
    3e7e:	76 30                	jbe    3eb0 <__ctype_b_loc@plt+0x1600>
    3e80:	48 8d 54 01 f8       	lea    -0x8(%rcx,%rax,1),%rdx
    3e85:	48 89 57 10          	mov    %rdx,0x10(%rdi)
    3e89:	48 8b 12             	mov    (%rdx),%rdx
    3e8c:	48 89 17             	mov    %rdx,(%rdi)
    3e8f:	0f b6 16             	movzbl (%rsi),%edx
    3e92:	84 d2                	test   %dl,%dl
    3e94:	0f 85 be 00 00 00    	jne    3f58 <__ctype_b_loc@plt+0x16a8>
    3e9a:	c7 47 08 00 00 00 00 	movl   $0x0,0x8(%rdi)
    3ea1:	48 c7 c0 ff ff ff ff 	mov    $0xffffffffffffffff,%rax
    3ea8:	c3                   	ret    
    3ea9:	0f 1f 80 00 00 00 00 	nopl   0x0(%rax)
    3eb0:	4c 8d 0d a9 a7 01 00 	lea    0x1a7a9(%rip),%r9        # 1e660 <__ctype_b_loc@plt+0x1bdb0>
    3eb7:	48 89 4f 10          	mov    %rcx,0x10(%rdi)
    3ebb:	0f b6 11             	movzbl (%rcx),%edx
    3ebe:	4d 63 04 81          	movslq (%r9,%rax,4),%r8
    3ec2:	48 89 17             	mov    %rdx,(%rdi)
    3ec5:	4d 01 c8             	add    %r9,%r8
    3ec8:	3e 41 ff e0          	notrack jmp *%r8
    3ecc:	0f 1f 40 00          	nopl   0x0(%rax)
    3ed0:	44 0f b6 41 06       	movzbl 0x6(%rcx),%r8d
    3ed5:	49 c1 e0 30          	shl    $0x30,%r8
    3ed9:	4c 01 c2             	add    %r8,%rdx
    3edc:	48 89 17             	mov    %rdx,(%rdi)
    3edf:	44 0f b6 41 05       	movzbl 0x5(%rcx),%r8d
    3ee4:	49 c1 e0 28          	shl    $0x28,%r8
    3ee8:	4c 01 c2             	add    %r8,%rdx
    3eeb:	48 89 17             	mov    %rdx,(%rdi)
    3eee:	44 0f b6 41 04       	movzbl 0x4(%rcx),%r8d
    3ef3:	49 c1 e0 20          	shl    $0x20,%r8
    3ef7:	4c 01 c2             	add    %r8,%rdx
    3efa:	48 89 17             	mov    %rdx,(%rdi)
    3efd:	44 0f b6 41 03       	movzbl 0x3(%rcx),%r8d
    3f02:	49 c1 e0 18          	shl    $0x18,%r8
    3f06:	4c 01 c2             	add    %r8,%rdx
    3f09:	48 89 17             	mov    %rdx,(%rdi)
    3f0c:	44 0f b6 41 02       	movzbl 0x2(%rcx),%r8d
    3f11:	49 c1 e0 10          	shl    $0x10,%r8
    3f15:	4c 01 c2             	add    %r8,%rdx
    3f18:	48 89 17             	mov    %rdx,(%rdi)
    3f1b:	0f b6 49 01          	movzbl 0x1(%rcx),%ecx
    3f1f:	48 c1 e1 08          	shl    $0x8,%rcx
    3f23:	48 01 ca             	add    %rcx,%rdx
    3f26:	48 89 17             	mov    %rdx,(%rdi)
    3f29:	0f b6 16             	movzbl (%rsi),%edx
    3f2c:	84 d2                	test   %dl,%dl
    3f2e:	75 10                	jne    3f40 <__ctype_b_loc@plt+0x1690>
    3f30:	c7 47 08 00 00 00 00 	movl   $0x0,0x8(%rdi)
    3f37:	48 c7 c0 ec ff ff ff 	mov    $0xffffffffffffffec,%rax
    3f3e:	c3                   	ret    
    3f3f:	90                   	nop
    3f40:	b9 09 00 00 00       	mov    $0x9,%ecx
    3f45:	0f bd d2             	bsr    %edx,%edx
    3f48:	29 c1                	sub    %eax,%ecx
    3f4a:	c1 e1 03             	shl    $0x3,%ecx
    3f4d:	29 d1                	sub    %edx,%ecx
    3f4f:	89 4f 08             	mov    %ecx,0x8(%rdi)
    3f52:	c3                   	ret    
    3f53:	0f 1f 44 00 00       	nopl   0x0(%rax,%rax,1)
    3f58:	0f bd d2             	bsr    %edx,%edx
    3f5b:	b9 08 00 00 00       	mov    $0x8,%ecx
    3f60:	29 d1                	sub    %edx,%ecx
    3f62:	89 4f 08             	mov    %ecx,0x8(%rdi)
    3f65:	c3                   	ret    
    3f66:	66 2e 0f 1f 84 00 00 	cs nopw 0x0(%rax,%rax,1)
    3f6d:	00 00 00 
    3f70:	66 0f ef c0          	pxor   %xmm0,%xmm0
    3f74:	48 c7 47 20 00 00 00 	movq   $0x0,0x20(%rdi)
    3f7b:	00 
    3f7c:	48 c7 c0 b8 ff ff ff 	mov    $0xffffffffffffffb8,%rax
    3f83:	0f 11 07             	movups %xmm0,(%rdi)
    3f86:	0f 11 47 10          	movups %xmm0,0x10(%rdi)
    3f8a:	c3                   	ret    
    3f8b:	0f 1f 44 00 00       	nopl   0x0(%rax,%rax,1)
    3f90:	8b 05 aa 40 02 00    	mov    0x240aa(%rip),%eax        # 28040 <stderr@GLIBC_2.2.5+0x20>
    3f96:	41 54                	push   %r12
    3f98:	55                   	push   %rbp
    3f99:	48 89 fd             	mov    %rdi,%rbp
    3f9c:	53                   	push   %rbx
    3f9d:	85 c0                	test   %eax,%eax
    3f9f:	7e 3f                	jle    3fe0 <__ctype_b_loc@plt+0x1730>
    3fa1:	48 8d 1d 18 19 03 00 	lea    0x31918(%rip),%rbx        # 358c0 <stderr@GLIBC_2.2.5+0xd8a0>
    3fa8:	8d 50 ff             	lea    -0x1(%rax),%edx
    3fab:	48 8d 43 08          	lea    0x8(%rbx),%rax
    3faf:	4c 8d 24 d0          	lea    (%rax,%rdx,8),%r12
    3fb3:	eb 0c                	jmp    3fc1 <__ctype_b_loc@plt+0x1711>
    3fb5:	0f 1f 00             	nopl   (%rax)
    3fb8:	48 83 c3 08          	add    $0x8,%rbx
    3fbc:	4c 39 e3             	cmp    %r12,%rbx
    3fbf:	74 1f                	je     3fe0 <__ctype_b_loc@plt+0x1730>
    3fc1:	48 8b 33             	mov    (%rbx),%rsi
    3fc4:	48 89 ef             	mov    %rbp,%rdi
    3fc7:	e8 e4 e6 ff ff       	call   26b0 <strcmp@plt>
    3fcc:	85 c0                	test   %eax,%eax
    3fce:	75 e8                	jne    3fb8 <__ctype_b_loc@plt+0x1708>
    3fd0:	b8 01 00 00 00       	mov    $0x1,%eax
    3fd5:	5b                   	pop    %rbx
    3fd6:	5d                   	pop    %rbp
    3fd7:	41 5c                	pop    %r12
    3fd9:	c3                   	ret    
    3fda:	66 0f 1f 44 00 00    	nopw   0x0(%rax,%rax,1)
    3fe0:	31 f6                	xor    %esi,%esi
    3fe2:	48 89 ef             	mov    %rbp,%rdi
    3fe5:	e8 e6 e7 ff ff       	call   27d0 <access@plt>
    3fea:	83 f8 ff             	cmp    $0xffffffff,%eax
    3fed:	74 31                	je     4020 <__ctype_b_loc@plt+0x1770>
    3fef:	48 63 1d 4a 40 02 00 	movslq 0x2404a(%rip),%rbx        # 28040 <stderr@GLIBC_2.2.5+0x20>
    3ff6:	81 fb ff 03 00 00    	cmp    $0x3ff,%ebx
    3ffc:	7f d2                	jg     3fd0 <__ctype_b_loc@plt+0x1720>
    3ffe:	48 89 ef             	mov    %rbp,%rdi
    4001:	e8 5a e8 ff ff       	call   2860 <strdup@plt>
    4006:	83 05 33 40 02 00 01 	addl   $0x1,0x24033(%rip)        # 28040 <stderr@GLIBC_2.2.5+0x20>
    400d:	49 89 c0             	mov    %rax,%r8
    4010:	48 8d 05 a9 18 03 00 	lea    0x318a9(%rip),%rax        # 358c0 <stderr@GLIBC_2.2.5+0xd8a0>
    4017:	4c 89 04 d8          	mov    %r8,(%rax,%rbx,8)
    401b:	eb b3                	jmp    3fd0 <__ctype_b_loc@plt+0x1720>
    401d:	0f 1f 00             	nopl   (%rax)
    4020:	be c0 01 00 00       	mov    $0x1c0,%esi
    4025:	48 89 ef             	mov    %rbp,%rdi
    4028:	e8 e3 e4 ff ff       	call   2510 <mkdir@plt>
    402d:	85 c0                	test   %eax,%eax
    402f:	74 be                	je     3fef <__ctype_b_loc@plt+0x173f>
    4031:	31 c0                	xor    %eax,%eax
    4033:	eb a0                	jmp    3fd5 <__ctype_b_loc@plt+0x1725>
    4035:	66 66 2e 0f 1f 84 00 	data16 cs nopw 0x0(%rax,%rax,1)
    403c:	00 00 00 00 
    4040:	31 c0                	xor    %eax,%eax
    4042:	b9 00 02 00 00       	mov    $0x200,%ecx
    4047:	48 83 ec 08          	sub    $0x8,%rsp
    404b:	ba ff 0f 00 00       	mov    $0xfff,%edx
    4050:	48 8d 35 49 f8 02 00 	lea    0x2f849(%rip),%rsi        # 338a0 <stderr@GLIBC_2.2.5+0xb880>
    4057:	48 89 f7             	mov    %rsi,%rdi
    405a:	f3 48 ab             	rep stos %rax,%es:(%rdi)
    405d:	48 8d 3d 3e a3 01 00 	lea    0x1a33e(%rip),%rdi        # 1e3a2 <__ctype_b_loc@plt+0x1baf2>
    4064:	e8 e7 e4 ff ff       	call   2550 <readlink@plt>
    4069:	48 83 f8 ff          	cmp    $0xffffffffffffffff,%rax
    406d:	0f 84 4d e8 ff ff    	je     28c0 <__ctype_b_loc@plt+0x10>
    4073:	48 83 c4 08          	add    $0x8,%rsp
    4077:	c3                   	ret    
    4078:	0f 1f 84 00 00 00 00 	nopl   0x0(%rax,%rax,1)
    407f:	00 
    4080:	50                   	push   %rax
    4081:	58                   	pop    %rax
    4082:	48 8d 0d d7 c7 02 00 	lea    0x2c7d7(%rip),%rcx        # 30860 <stderr@GLIBC_2.2.5+0x8840>
    4089:	be 01 00 00 00       	mov    $0x1,%esi
    408e:	31 c0                	xor    %eax,%eax
    4090:	48 8d 15 99 9f 01 00 	lea    0x19f99(%rip),%rdx        # 1e030 <__ctype_b_loc@plt+0x1b780>
    4097:	48 83 ec 08          	sub    $0x8,%rsp
    409b:	48 8b 3d 7e 3f 02 00 	mov    0x23f7e(%rip),%rdi        # 28020 <stderr@GLIBC_2.2.5>
    40a2:	e8 a9 e7 ff ff       	call   2850 <__fprintf_chk@plt>
    40a7:	bf 02 00 00 00       	mov    $0x2,%edi
    40ac:	e8 7f e7 ff ff       	call   2830 <exit@plt>
    40b1:	66 66 2e 0f 1f 84 00 	data16 cs nopw 0x0(%rax,%rax,1)
    40b8:	00 00 00 00 
    40bc:	0f 1f 40 00          	nopl   0x0(%rax)
    40c0:	41 57                	push   %r15
    40c2:	b8 01 00 00 00       	mov    $0x1,%eax
    40c7:	41 89 d7             	mov    %edx,%r15d
    40ca:	41 56                	push   %r14
    40cc:	41 55                	push   %r13
    40ce:	41 54                	push   %r12
    40d0:	4d 89 c4             	mov    %r8,%r12
    40d3:	55                   	push   %rbp
    40d4:	48 89 cd             	mov    %rcx,%rbp
    40d7:	53                   	push   %rbx
    40d8:	48 89 f3             	mov    %rsi,%rbx
    40db:	44 89 ce             	mov    %r9d,%esi
    40de:	4c 8b 6c 24 38       	mov    0x38(%rsp),%r13
    40e3:	89 f1                	mov    %esi,%ecx
    40e5:	49 8d 55 6a          	lea    0x6a(%r13),%rdx
    40e9:	48 89 7c 24 e0       	mov    %rdi,-0x20(%rsp)
    40ee:	44 89 4c 24 f4       	mov    %r9d,-0xc(%rsp)
    40f3:	4c 8d 4f 08          	lea    0x8(%rdi),%r9
    40f7:	89 c7                	mov    %eax,%edi
    40f9:	d3 e7                	shl    %cl,%edi
    40fb:	48 89 f1             	mov    %rsi,%rcx
    40fe:	48 89 54 24 e8       	mov    %rdx,-0x18(%rsp)
    4103:	48 c1 e1 20          	shl    $0x20,%rcx
    4107:	89 7c 24 f0          	mov    %edi,-0x10(%rsp)
    410b:	8d 57 ff             	lea    -0x1(%rdi),%edx
    410e:	48 83 c9 01          	or     $0x1,%rcx
    4112:	48 89 4c 24 f8       	mov    %rcx,-0x8(%rsp)
    4117:	48 89 4c 24 d8       	mov    %rcx,-0x28(%rsp)
    411c:	8d 4e ff             	lea    -0x1(%rsi),%ecx
    411f:	d3 e0                	shl    %cl,%eax
    4121:	89 f9                	mov    %edi,%ecx
    4123:	c1 ef 03             	shr    $0x3,%edi
    4126:	d1 e9                	shr    %ecx
    4128:	41 89 c6             	mov    %eax,%r14d
    412b:	8d 74 39 03          	lea    0x3(%rcx,%rdi,1),%esi
    412f:	41 83 ff ff          	cmp    $0xffffffff,%r15d
    4133:	0f 84 0e 02 00 00    	je     4347 <__ctype_b_loc@plt+0x1a97>
    4139:	89 d1                	mov    %edx,%ecx
    413b:	31 c0                	xor    %eax,%eax
    413d:	45 31 d2             	xor    %r10d,%r10d
    4140:	41 b8 01 00 00 00    	mov    $0x1,%r8d
    4146:	45 31 db             	xor    %r11d,%r11d
    4149:	eb 25                	jmp    4170 <__ctype_b_loc@plt+0x18c0>
    414b:	0f 1f 44 00 00       	nopl   0x0(%rax,%rax,1)
    4150:	66 41 39 fe          	cmp    %di,%r14w
    4154:	66 41 89 7c 45 00    	mov    %di,0x0(%r13,%rax,2)
    415a:	41 ba 01 00 00 00    	mov    $0x1,%r10d
    4160:	48 8d 78 01          	lea    0x1(%rax),%rdi
    4164:	4d 0f 4e c3          	cmovle %r11,%r8
    4168:	49 39 c7             	cmp    %rax,%r15
    416b:	74 2b                	je     4198 <__ctype_b_loc@plt+0x18e8>
    416d:	48 89 f8             	mov    %rdi,%rax
    4170:	0f b7 3c 43          	movzwl (%rbx,%rax,2),%edi
    4174:	66 83 ff ff          	cmp    $0xffff,%di
    4178:	75 d6                	jne    4150 <__ctype_b_loc@plt+0x18a0>
    417a:	89 cf                	mov    %ecx,%edi
    417c:	83 e9 01             	sub    $0x1,%ecx
    417f:	41 89 44 f9 04       	mov    %eax,0x4(%r9,%rdi,8)
    4184:	bf 01 00 00 00       	mov    $0x1,%edi
    4189:	66 41 89 7c 45 00    	mov    %di,0x0(%r13,%rax,2)
    418f:	48 8d 78 01          	lea    0x1(%rax),%rdi
    4193:	49 39 c7             	cmp    %rax,%r15
    4196:	75 d5                	jne    416d <__ctype_b_loc@plt+0x18bd>
    4198:	45 84 d2             	test   %r10b,%r10b
    419b:	74 17                	je     41b4 <__ctype_b_loc@plt+0x1904>
    419d:	48 b8 00 00 00 00 ff 	movabs $0xffffffff00000000,%rax
    41a4:	ff ff ff 
    41a7:	48 23 44 24 f8       	and    -0x8(%rsp),%rax
    41ac:	4c 09 c0             	or     %r8,%rax
    41af:	48 89 44 24 d8       	mov    %rax,-0x28(%rsp)
    41b4:	48 8b 44 24 e0       	mov    -0x20(%rsp),%rax
    41b9:	48 8b 7c 24 d8       	mov    -0x28(%rsp),%rdi
    41be:	48 89 38             	mov    %rdi,(%rax)
    41c1:	39 ca                	cmp    %ecx,%edx
    41c3:	0f 84 b9 00 00 00    	je     4282 <__ctype_b_loc@plt+0x19d2>
    41c9:	45 31 f6             	xor    %r14d,%r14d
    41cc:	31 c0                	xor    %eax,%eax
    41ce:	66 90                	xchg   %ax,%ax
    41d0:	46 0f bf 04 73       	movswl (%rbx,%r14,2),%r8d
    41d5:	45 89 f2             	mov    %r14d,%r10d
    41d8:	45 85 c0             	test   %r8d,%r8d
    41db:	7e 23                	jle    4200 <__ctype_b_loc@plt+0x1950>
    41dd:	31 ff                	xor    %edi,%edi
    41df:	90                   	nop
    41e0:	41 89 c3             	mov    %eax,%r11d
    41e3:	47 89 54 d9 04       	mov    %r10d,0x4(%r9,%r11,8)
    41e8:	0f 1f 84 00 00 00 00 	nopl   0x0(%rax,%rax,1)
    41ef:	00 
    41f0:	01 f0                	add    %esi,%eax
    41f2:	21 d0                	and    %edx,%eax
    41f4:	39 c8                	cmp    %ecx,%eax
    41f6:	77 f8                	ja     41f0 <__ctype_b_loc@plt+0x1940>
    41f8:	83 c7 01             	add    $0x1,%edi
    41fb:	41 39 f8             	cmp    %edi,%r8d
    41fe:	75 e0                	jne    41e0 <__ctype_b_loc@plt+0x1930>
    4200:	49 8d 7e 01          	lea    0x1(%r14),%rdi
    4204:	4d 39 f7             	cmp    %r14,%r15
    4207:	74 05                	je     420e <__ctype_b_loc@plt+0x195e>
    4209:	49 89 fe             	mov    %rdi,%r14
    420c:	eb c2                	jmp    41d0 <__ctype_b_loc@plt+0x1920>
    420e:	8b 44 24 f0          	mov    -0x10(%rsp),%eax
    4212:	85 c0                	test   %eax,%eax
    4214:	74 61                	je     4277 <__ctype_b_loc@plt+0x19c7>
    4216:	44 8b 54 24 f0       	mov    -0x10(%rsp),%r10d
    421b:	44 0f b6 44 24 f4    	movzbl -0xc(%rsp),%r8d
    4221:	31 f6                	xor    %esi,%esi
    4223:	44 89 d7             	mov    %r10d,%edi
    4226:	66 2e 0f 1f 84 00 00 	cs nopw 0x0(%rax,%rax,1)
    422d:	00 00 00 
    4230:	41 8b 51 04          	mov    0x4(%r9),%edx
    4234:	49 8d 4c 55 00       	lea    0x0(%r13,%rdx,2),%rcx
    4239:	0f b7 01             	movzwl (%rcx),%eax
    423c:	44 8d 58 01          	lea    0x1(%rax),%r11d
    4240:	66 44 89 19          	mov    %r11w,(%rcx)
    4244:	44 0f bd d8          	bsr    %eax,%r11d
    4248:	44 89 c1             	mov    %r8d,%ecx
    424b:	83 c6 01             	add    $0x1,%esi
    424e:	44 29 d9             	sub    %r11d,%ecx
    4251:	49 83 c1 08          	add    $0x8,%r9
    4255:	d3 e0                	shl    %cl,%eax
    4257:	41 88 49 fb          	mov    %cl,-0x5(%r9)
    425b:	29 f8                	sub    %edi,%eax
    425d:	66 41 89 41 f8       	mov    %ax,-0x8(%r9)
    4262:	41 8b 04 94          	mov    (%r12,%rdx,4),%eax
    4266:	41 88 41 fa          	mov    %al,-0x6(%r9)
    426a:	8b 44 95 00          	mov    0x0(%rbp,%rdx,4),%eax
    426e:	41 89 41 fc          	mov    %eax,-0x4(%r9)
    4272:	41 39 f2             	cmp    %esi,%r10d
    4275:	77 b9                	ja     4230 <__ctype_b_loc@plt+0x1980>
    4277:	5b                   	pop    %rbx
    4278:	5d                   	pop    %rbp
    4279:	41 5c                	pop    %r12
    427b:	41 5d                	pop    %r13
    427d:	41 5e                	pop    %r14
    427f:	41 5f                	pop    %r15
    4281:	c3                   	ret    
    4282:	4c 89 4c 24 d8       	mov    %r9,-0x28(%rsp)
    4287:	4a 8d 44 7b 02       	lea    0x2(%rbx,%r15,2),%rax
    428c:	31 ff                	xor    %edi,%edi
    428e:	45 31 f6             	xor    %r14d,%r14d
    4291:	4c 8b 5c 24 e8       	mov    -0x18(%rsp),%r11
    4296:	48 89 54 24 e0       	mov    %rdx,-0x20(%rsp)
    429b:	49 bf 01 01 01 01 01 	movabs $0x101010101010101,%r15
    42a2:	01 01 01 
    42a5:	48 89 c2             	mov    %rax,%rdx
    42a8:	4c 0f bf 0b          	movswq (%rbx),%r9
    42ac:	b8 08 00 00 00       	mov    $0x8,%eax
    42b1:	4b 89 3c 33          	mov    %rdi,(%r11,%r14,1)
    42b5:	4f 8d 04 33          	lea    (%r11,%r14,1),%r8
    42b9:	4d 89 ca             	mov    %r9,%r10
    42bc:	66 41 83 f9 08       	cmp    $0x8,%r9w
    42c1:	7e 14                	jle    42d7 <__ctype_b_loc@plt+0x1a27>
    42c3:	0f 1f 44 00 00       	nopl   0x0(%rax,%rax,1)
    42c8:	48 63 c8             	movslq %eax,%rcx
    42cb:	83 c0 08             	add    $0x8,%eax
    42ce:	49 89 3c 08          	mov    %rdi,(%r8,%rcx,1)
    42d2:	41 39 c1             	cmp    %eax,%r9d
    42d5:	7f f1                	jg     42c8 <__ctype_b_loc@plt+0x1a18>
    42d7:	48 83 c3 02          	add    $0x2,%rbx
    42db:	4d 01 d6             	add    %r10,%r14
    42de:	4c 01 ff             	add    %r15,%rdi
    42e1:	48 39 da             	cmp    %rbx,%rdx
    42e4:	75 c2                	jne    42a8 <__ctype_b_loc@plt+0x19f8>
    42e6:	4c 8b 4c 24 d8       	mov    -0x28(%rsp),%r9
    42eb:	48 8b 54 24 e0       	mov    -0x20(%rsp),%rdx
    42f0:	8b 44 24 f0          	mov    -0x10(%rsp),%eax
    42f4:	48 85 c0             	test   %rax,%rax
    42f7:	0f 84 7a ff ff ff    	je     4277 <__ctype_b_loc@plt+0x19c7>
    42fd:	48 83 e8 01          	sub    $0x1,%rax
    4301:	48 8b 4c 24 e8       	mov    -0x18(%rsp),%rcx
    4306:	48 83 e0 fe          	and    $0xfffffffffffffffe,%rax
    430a:	4d 8d 54 05 6c       	lea    0x6c(%r13,%rax,1),%r10
    430f:	31 c0                	xor    %eax,%eax
    4311:	44 0f b6 01          	movzbl (%rcx),%r8d
    4315:	48 89 d7             	mov    %rdx,%rdi
    4318:	48 83 c1 02          	add    $0x2,%rcx
    431c:	48 21 c7             	and    %rax,%rdi
    431f:	48 01 f0             	add    %rsi,%rax
    4322:	45 89 44 f9 04       	mov    %r8d,0x4(%r9,%rdi,8)
    4327:	48 89 d7             	mov    %rdx,%rdi
    432a:	44 0f b6 41 ff       	movzbl -0x1(%rcx),%r8d
    432f:	48 21 c7             	and    %rax,%rdi
    4332:	48 01 f0             	add    %rsi,%rax
    4335:	45 89 44 f9 04       	mov    %r8d,0x4(%r9,%rdi,8)
    433a:	48 21 d0             	and    %rdx,%rax
    433d:	49 39 ca             	cmp    %rcx,%r10
    4340:	75 cf                	jne    4311 <__ctype_b_loc@plt+0x1a61>
    4342:	e9 cf fe ff ff       	jmp    4216 <__ctype_b_loc@plt+0x1966>
    4347:	48 8b 44 24 e0       	mov    -0x20(%rsp),%rax
    434c:	48 8b 5c 24 f8       	mov    -0x8(%rsp),%rbx
    4351:	48 89 18             	mov    %rbx,(%rax)
    4354:	eb 9a                	jmp    42f0 <__ctype_b_loc@plt+0x1a40>
    4356:	66 2e 0f 1f 84 00 00 	cs nopw 0x0(%rax,%rax,1)
    435d:	00 00 00 
    4360:	41 55                	push   %r13
    4362:	41 54                	push   %r12
    4364:	55                   	push   %rbp
    4365:	53                   	push   %rbx
    4366:	48 83 ec 38          	sub    $0x38,%rsp
    436a:	8b 1d d4 3c 02 00    	mov    0x23cd4(%rip),%ebx        # 28044 <stderr@GLIBC_2.2.5+0x24>
    4370:	64 48 8b 04 25 28 00 	mov    %fs:0x28,%rax
    4377:	00 00 
    4379:	48 89 44 24 28       	mov    %rax,0x28(%rsp)
    437e:	31 c0                	xor    %eax,%eax
    4380:	85 db                	test   %ebx,%ebx
    4382:	74 6d                	je     43f1 <__ctype_b_loc@plt+0x1b41>
    4384:	31 f6                	xor    %esi,%esi
    4386:	ba 01 00 00 00       	mov    $0x1,%edx
    438b:	89 df                	mov    %ebx,%edi
    438d:	e8 1e e4 ff ff       	call   27b0 <waitpid@plt>
    4392:	83 f8 ff             	cmp    $0xffffffff,%eax
    4395:	74 4a                	je     43e1 <__ctype_b_loc@plt+0x1b31>
    4397:	66 0f 6f 05 41 dd 01 	movdqa 0x1dd41(%rip),%xmm0        # 220e0 <__ctype_b_loc@plt+0x1f830>
    439e:	00 
    439f:	31 ed                	xor    %ebp,%ebp
    43a1:	45 31 e4             	xor    %r12d,%r12d
    43a4:	49 bd b3 94 d6 26 e8 	movabs $0x112e0be826d694b3,%r13
    43ab:	0b 2e 11 
    43ae:	0f 29 04 24          	movaps %xmm0,(%rsp)
    43b2:	66 0f 1f 44 00 00    	nopw   0x0(%rax,%rax,1)
    43b8:	31 f6                	xor    %esi,%esi
    43ba:	ba 01 00 00 00       	mov    $0x1,%edx
    43bf:	89 df                	mov    %ebx,%edi
    43c1:	e8 ea e3 ff ff       	call   27b0 <waitpid@plt>
    43c6:	83 f8 ff             	cmp    $0xffffffff,%eax
    43c9:	75 55                	jne    4420 <__ctype_b_loc@plt+0x1b70>
    43cb:	e8 00 e1 ff ff       	call   24d0 <__errno_location@plt>
    43d0:	83 38 04             	cmpl   $0x4,(%rax)
    43d3:	74 e3                	je     43b8 <__ctype_b_loc@plt+0x1b08>
    43d5:	48 8d 3d d5 9f 01 00 	lea    0x19fd5(%rip),%rdi        # 1e3b1 <__ctype_b_loc@plt+0x1bb01>
    43dc:	e8 0f e4 ff ff       	call   27f0 <perror@plt>
    43e1:	8b 3d 5d 3c 02 00    	mov    0x23c5d(%rip),%edi        # 28044 <stderr@GLIBC_2.2.5+0x24>
    43e7:	be 09 00 00 00       	mov    $0x9,%esi
    43ec:	e8 1f e3 ff ff       	call   2710 <kill@plt>
    43f1:	80 3d c8 34 03 00 00 	cmpb   $0x0,0x334c8(%rip)        # 378c0 <stderr@GLIBC_2.2.5+0xf8a0>
    43f8:	0f 85 8a 00 00 00    	jne    4488 <__ctype_b_loc@plt+0x1bd8>
    43fe:	48 8b 44 24 28       	mov    0x28(%rsp),%rax
    4403:	64 48 2b 04 25 28 00 	sub    %fs:0x28,%rax
    440a:	00 00 
    440c:	0f 85 9c 00 00 00    	jne    44ae <__ctype_b_loc@plt+0x1bfe>
    4412:	48 83 c4 38          	add    $0x38,%rsp
    4416:	5b                   	pop    %rbx
    4417:	5d                   	pop    %rbp
    4418:	41 5c                	pop    %r12
    441a:	41 5d                	pop    %r13
    441c:	c3                   	ret    
    441d:	0f 1f 00             	nopl   (%rax)
    4420:	85 c0                	test   %eax,%eax
    4422:	78 b1                	js     43d5 <__ctype_b_loc@plt+0x1b25>
    4424:	75 bb                	jne    43e1 <__ctype_b_loc@plt+0x1b31>
    4426:	48 81 c5 00 c2 eb 0b 	add    $0xbebc200,%rbp
    442d:	48 8d 74 24 10       	lea    0x10(%rsp),%rsi
    4432:	48 89 e7             	mov    %rsp,%rdi
    4435:	e8 d6 e1 ff ff       	call   2610 <nanosleep@plt>
    443a:	48 89 e8             	mov    %rbp,%rax
    443d:	49 f7 ed             	imul   %r13
    4440:	48 89 e8             	mov    %rbp,%rax
    4443:	48 c1 f8 3f          	sar    $0x3f,%rax
    4447:	48 c1 fa 1a          	sar    $0x1a,%rdx
    444b:	48 29 c2             	sub    %rax,%rdx
    444e:	49 01 d4             	add    %rdx,%r12
    4451:	48 69 d2 00 ca 9a 3b 	imul   $0x3b9aca00,%rdx,%rdx
    4458:	48 29 d5             	sub    %rdx,%rbp
    445b:	49 83 fc 04          	cmp    $0x4,%r12
    445f:	0f 8e 53 ff ff ff    	jle    43b8 <__ctype_b_loc@plt+0x1b08>
    4465:	49 83 fc 05          	cmp    $0x5,%r12
    4469:	0f 85 72 ff ff ff    	jne    43e1 <__ctype_b_loc@plt+0x1b31>
    446f:	48 85 ed             	test   %rbp,%rbp
    4472:	0f 89 69 ff ff ff    	jns    43e1 <__ctype_b_loc@plt+0x1b31>
    4478:	41 bc 05 00 00 00    	mov    $0x5,%r12d
    447e:	e9 35 ff ff ff       	jmp    43b8 <__ctype_b_loc@plt+0x1b08>
    4483:	0f 1f 44 00 00       	nopl   0x0(%rax,%rax,1)
    4488:	48 8b 44 24 28       	mov    0x28(%rsp),%rax
    448d:	64 48 2b 04 25 28 00 	sub    %fs:0x28,%rax
    4494:	00 00 
    4496:	75 16                	jne    44ae <__ctype_b_loc@plt+0x1bfe>
    4498:	48 83 c4 38          	add    $0x38,%rsp
    449c:	48 8d 3d 3d 34 03 00 	lea    0x3343d(%rip),%rdi        # 378e0 <stderr@GLIBC_2.2.5+0xf8c0>
    44a3:	5b                   	pop    %rbx
    44a4:	5d                   	pop    %rbp
    44a5:	41 5c                	pop    %r12
    44a7:	41 5d                	pop    %r13
    44a9:	e9 f2 f7 ff ff       	jmp    3ca0 <__ctype_b_loc@plt+0x13f0>
    44ae:	e8 1d e1 ff ff       	call   25d0 <__stack_chk_fail@plt>
    44b3:	66 66 2e 0f 1f 84 00 	data16 cs nopw 0x0(%rax,%rax,1)
    44ba:	00 00 00 00 
    44be:	66 90                	xchg   %ax,%ax
    44c0:	f3 0f 1e fa          	endbr64 
    44c4:	e9 97 fe ff ff       	jmp    4360 <__ctype_b_loc@plt+0x1ab0>
    44c9:	0f 1f 80 00 00 00 00 	nopl   0x0(%rax)
    44d0:	41 57                	push   %r15
    44d2:	4c 8d 3c 0a          	lea    (%rdx,%rcx,1),%r15
    44d6:	41 56                	push   %r14
    44d8:	41 55                	push   %r13
    44da:	41 54                	push   %r12
    44dc:	55                   	push   %rbp
    44dd:	53                   	push   %rbx
    44de:	48 89 d3             	mov    %rdx,%rbx
    44e1:	48 89 f2             	mov    %rsi,%rdx
    44e4:	48 29 fa             	sub    %rdi,%rdx
    44e7:	48 83 ec 28          	sub    $0x28,%rsp
    44eb:	49 39 d7             	cmp    %rdx,%r15
    44ee:	0f 87 ec 00 00 00    	ja     45e0 <__ctype_b_loc@plt+0x1d30>
    44f4:	49 8b 11             	mov    (%r9),%rdx
    44f7:	49 89 cc             	mov    %rcx,%r12
    44fa:	48 8b 4c 24 60       	mov    0x60(%rsp),%rcx
    44ff:	4d 89 ce             	mov    %r9,%r14
    4502:	48 29 d1             	sub    %rdx,%rcx
    4505:	48 39 d9             	cmp    %rbx,%rcx
    4508:	0f 82 c2 00 00 00    	jb     45d0 <__ctype_b_loc@plt+0x1d20>
    450e:	4c 8d 0c 1f          	lea    (%rdi,%rbx,1),%r9
    4512:	48 8d 6e e0          	lea    -0x20(%rsi),%rbp
    4516:	4d 89 c5             	mov    %r8,%r13
    4519:	48 89 d9             	mov    %rbx,%rcx
    451c:	4d 89 ca             	mov    %r9,%r10
    451f:	48 89 ee             	mov    %rbp,%rsi
    4522:	4c 89 4c 24 18       	mov    %r9,0x18(%rsp)
    4527:	4d 29 c2             	sub    %r8,%r10
    452a:	45 31 c0             	xor    %r8d,%r8d
    452d:	48 89 54 24 08       	mov    %rdx,0x8(%rsp)
    4532:	4c 89 54 24 10       	mov    %r10,0x10(%rsp)
    4537:	e8 f4 ee ff ff       	call   3430 <__ctype_b_loc@plt+0xb80>
    453c:	4c 8b 4c 24 18       	mov    0x18(%rsp),%r9
    4541:	48 8b 54 24 08       	mov    0x8(%rsp),%rdx
    4546:	4c 8b 54 24 10       	mov    0x10(%rsp),%r10
    454b:	4c 89 c8             	mov    %r9,%rax
    454e:	48 2b 44 24 68       	sub    0x68(%rsp),%rax
    4553:	48 01 da             	add    %rbx,%rdx
    4556:	4c 39 e8             	cmp    %r13,%rax
    4559:	49 89 16             	mov    %rdx,(%r14)
    455c:	73 41                	jae    459f <__ctype_b_loc@plt+0x1cef>
    455e:	4c 89 c8             	mov    %r9,%rax
    4561:	48 2b 44 24 70       	sub    0x70(%rsp),%rax
    4566:	4c 39 e8             	cmp    %r13,%rax
    4569:	72 65                	jb     45d0 <__ctype_b_loc@plt+0x1d20>
    456b:	48 8b 5c 24 68       	mov    0x68(%rsp),%rbx
    4570:	48 8b 74 24 78       	mov    0x78(%rsp),%rsi
    4575:	4c 29 d3             	sub    %r10,%rbx
    4578:	48 29 de             	sub    %rbx,%rsi
    457b:	4a 8d 04 26          	lea    (%rsi,%r12,1),%rax
    457f:	48 39 44 24 78       	cmp    %rax,0x78(%rsp)
    4584:	73 6a                	jae    45f0 <__ctype_b_loc@plt+0x1d40>
    4586:	4c 89 cf             	mov    %r9,%rdi
    4589:	48 89 da             	mov    %rbx,%rdx
    458c:	49 29 dc             	sub    %rbx,%r12
    458f:	e8 0c e2 ff ff       	call   27a0 <memmove@plt>
    4594:	4c 8b 54 24 68       	mov    0x68(%rsp),%r10
    4599:	49 89 c1             	mov    %rax,%r9
    459c:	49 01 d9             	add    %rbx,%r9
    459f:	41 b8 01 00 00 00    	mov    $0x1,%r8d
    45a5:	4c 89 e1             	mov    %r12,%rcx
    45a8:	4c 89 d2             	mov    %r10,%rdx
    45ab:	48 89 ee             	mov    %rbp,%rsi
    45ae:	4c 89 cf             	mov    %r9,%rdi
    45b1:	e8 7a ee ff ff       	call   3430 <__ctype_b_loc@plt+0xb80>
    45b6:	48 83 c4 28          	add    $0x28,%rsp
    45ba:	4c 89 f8             	mov    %r15,%rax
    45bd:	5b                   	pop    %rbx
    45be:	5d                   	pop    %rbp
    45bf:	41 5c                	pop    %r12
    45c1:	41 5d                	pop    %r13
    45c3:	41 5e                	pop    %r14
    45c5:	41 5f                	pop    %r15
    45c7:	c3                   	ret    
    45c8:	0f 1f 84 00 00 00 00 	nopl   0x0(%rax,%rax,1)
    45cf:	00 
    45d0:	49 c7 c7 ec ff ff ff 	mov    $0xffffffffffffffec,%r15
    45d7:	eb dd                	jmp    45b6 <__ctype_b_loc@plt+0x1d06>
    45d9:	0f 1f 80 00 00 00 00 	nopl   0x0(%rax)
    45e0:	49 c7 c7 ba ff ff ff 	mov    $0xffffffffffffffba,%r15
    45e7:	eb cd                	jmp    45b6 <__ctype_b_loc@plt+0x1d06>
    45e9:	0f 1f 80 00 00 00 00 	nopl   0x0(%rax)
    45f0:	4c 89 e2             	mov    %r12,%rdx
    45f3:	4c 89 cf             	mov    %r9,%rdi
    45f6:	e8 a5 e1 ff ff       	call   27a0 <memmove@plt>
    45fb:	eb b9                	jmp    45b6 <__ctype_b_loc@plt+0x1d06>
    45fd:	0f 1f 00             	nopl   (%rax)
    4600:	41 57                	push   %r15
    4602:	b8 01 00 00 00       	mov    $0x1,%eax
    4607:	41 56                	push   %r14
    4609:	41 89 d6             	mov    %edx,%r14d
    460c:	41 55                	push   %r13
    460e:	41 54                	push   %r12
    4610:	4d 89 c4             	mov    %r8,%r12
    4613:	55                   	push   %rbp
    4614:	48 89 cd             	mov    %rcx,%rbp
    4617:	53                   	push   %rbx
    4618:	48 89 f3             	mov    %rsi,%rbx
    461b:	44 89 ce             	mov    %r9d,%esi
    461e:	4c 8b 6c 24 38       	mov    0x38(%rsp),%r13
    4623:	48 89 f1             	mov    %rsi,%rcx
    4626:	48 c1 e1 20          	shl    $0x20,%rcx
    462a:	49 8d 55 6a          	lea    0x6a(%r13),%rdx
    462e:	48 83 c9 01          	or     $0x1,%rcx
    4632:	48 89 7c 24 e0       	mov    %rdi,-0x20(%rsp)
    4637:	44 89 4c 24 f4       	mov    %r9d,-0xc(%rsp)
    463c:	4c 8d 4f 08          	lea    0x8(%rdi),%r9
    4640:	89 f7                	mov    %esi,%edi
    4642:	48 89 4c 24 f8       	mov    %rcx,-0x8(%rsp)
    4647:	c4 e2 41 f7 f8       	shlx   %edi,%eax,%edi
    464c:	48 89 4c 24 d8       	mov    %rcx,-0x28(%rsp)
    4651:	8d 4e ff             	lea    -0x1(%rsi),%ecx
    4654:	c4 62 71 f7 f8       	shlx   %ecx,%eax,%r15d
    4659:	89 f9                	mov    %edi,%ecx
    465b:	89 7c 24 f0          	mov    %edi,-0x10(%rsp)
    465f:	48 89 54 24 e8       	mov    %rdx,-0x18(%rsp)
    4664:	d1 e9                	shr    %ecx
    4666:	8d 57 ff             	lea    -0x1(%rdi),%edx
    4669:	c1 ef 03             	shr    $0x3,%edi
    466c:	8d 74 39 03          	lea    0x3(%rcx,%rdi,1),%esi
    4670:	41 83 fe ff          	cmp    $0xffffffff,%r14d
    4674:	0f 84 15 02 00 00    	je     488f <__ctype_b_loc@plt+0x1fdf>
    467a:	89 d1                	mov    %edx,%ecx
    467c:	31 c0                	xor    %eax,%eax
    467e:	45 31 d2             	xor    %r10d,%r10d
    4681:	41 b8 01 00 00 00    	mov    $0x1,%r8d
    4687:	45 31 db             	xor    %r11d,%r11d
    468a:	eb 24                	jmp    46b0 <__ctype_b_loc@plt+0x1e00>
    468c:	0f 1f 40 00          	nopl   0x0(%rax)
    4690:	66 41 39 ff          	cmp    %di,%r15w
    4694:	66 41 89 7c 45 00    	mov    %di,0x0(%r13,%rax,2)
    469a:	41 ba 01 00 00 00    	mov    $0x1,%r10d
    46a0:	48 8d 78 01          	lea    0x1(%rax),%rdi
    46a4:	4d 0f 4e c3          	cmovle %r11,%r8
    46a8:	49 39 c6             	cmp    %rax,%r14
    46ab:	74 2b                	je     46d8 <__ctype_b_loc@plt+0x1e28>
    46ad:	48 89 f8             	mov    %rdi,%rax
    46b0:	0f b7 3c 43          	movzwl (%rbx,%rax,2),%edi
    46b4:	66 83 ff ff          	cmp    $0xffff,%di
    46b8:	75 d6                	jne    4690 <__ctype_b_loc@plt+0x1de0>
    46ba:	89 cf                	mov    %ecx,%edi
    46bc:	83 e9 01             	sub    $0x1,%ecx
    46bf:	41 89 44 f9 04       	mov    %eax,0x4(%r9,%rdi,8)
    46c4:	bf 01 00 00 00       	mov    $0x1,%edi
    46c9:	66 41 89 7c 45 00    	mov    %di,0x0(%r13,%rax,2)
    46cf:	48 8d 78 01          	lea    0x1(%rax),%rdi
    46d3:	49 39 c6             	cmp    %rax,%r14
    46d6:	75 d5                	jne    46ad <__ctype_b_loc@plt+0x1dfd>
    46d8:	45 84 d2             	test   %r10b,%r10b
    46db:	74 17                	je     46f4 <__ctype_b_loc@plt+0x1e44>
    46dd:	48 b8 00 00 00 00 ff 	movabs $0xffffffff00000000,%rax
    46e4:	ff ff ff 
    46e7:	48 23 44 24 f8       	and    -0x8(%rsp),%rax
    46ec:	4c 09 c0             	or     %r8,%rax
    46ef:	48 89 44 24 d8       	mov    %rax,-0x28(%rsp)
    46f4:	48 8b 44 24 e0       	mov    -0x20(%rsp),%rax
    46f9:	48 8b 7c 24 d8       	mov    -0x28(%rsp),%rdi
    46fe:	48 89 38             	mov    %rdi,(%rax)
    4701:	39 ca                	cmp    %ecx,%edx
    4703:	0f 84 bc 00 00 00    	je     47c5 <__ctype_b_loc@plt+0x1f15>
    4709:	45 31 ff             	xor    %r15d,%r15d
    470c:	31 c0                	xor    %eax,%eax
    470e:	66 90                	xchg   %ax,%ax
    4710:	46 0f bf 04 7b       	movswl (%rbx,%r15,2),%r8d
    4715:	45 89 fa             	mov    %r15d,%r10d
    4718:	45 85 c0             	test   %r8d,%r8d
    471b:	7e 23                	jle    4740 <__ctype_b_loc@plt+0x1e90>
    471d:	31 ff                	xor    %edi,%edi
    471f:	90                   	nop
    4720:	41 89 c3             	mov    %eax,%r11d
    4723:	47 89 54 d9 04       	mov    %r10d,0x4(%r9,%r11,8)
    4728:	0f 1f 84 00 00 00 00 	nopl   0x0(%rax,%rax,1)
    472f:	00 
    4730:	01 f0                	add    %esi,%eax
    4732:	21 d0                	and    %edx,%eax
    4734:	39 c8                	cmp    %ecx,%eax
    4736:	77 f8                	ja     4730 <__ctype_b_loc@plt+0x1e80>
    4738:	83 c7 01             	add    $0x1,%edi
    473b:	41 39 f8             	cmp    %edi,%r8d
    473e:	75 e0                	jne    4720 <__ctype_b_loc@plt+0x1e70>
    4740:	49 8d 7f 01          	lea    0x1(%r15),%rdi
    4744:	4d 39 fe             	cmp    %r15,%r14
    4747:	74 05                	je     474e <__ctype_b_loc@plt+0x1e9e>
    4749:	49 89 ff             	mov    %rdi,%r15
    474c:	eb c2                	jmp    4710 <__ctype_b_loc@plt+0x1e60>
    474e:	8b 44 24 f0          	mov    -0x10(%rsp),%eax
    4752:	85 c0                	test   %eax,%eax
    4754:	74 64                	je     47ba <__ctype_b_loc@plt+0x1f0a>
    4756:	44 8b 54 24 f0       	mov    -0x10(%rsp),%r10d
    475b:	44 0f b6 44 24 f4    	movzbl -0xc(%rsp),%r8d
    4761:	31 c9                	xor    %ecx,%ecx
    4763:	44 89 d7             	mov    %r10d,%edi
    4766:	66 2e 0f 1f 84 00 00 	cs nopw 0x0(%rax,%rax,1)
    476d:	00 00 00 
    4770:	41 8b 51 04          	mov    0x4(%r9),%edx
    4774:	49 8d 74 55 00       	lea    0x0(%r13,%rdx,2),%rsi
    4779:	0f b7 06             	movzwl (%rsi),%eax
    477c:	44 8d 58 01          	lea    0x1(%rax),%r11d
    4780:	66 44 89 1e          	mov    %r11w,(%rsi)
    4784:	44 0f bd d8          	bsr    %eax,%r11d
    4788:	44 89 c6             	mov    %r8d,%esi
    478b:	83 c1 01             	add    $0x1,%ecx
    478e:	44 29 de             	sub    %r11d,%esi
    4791:	49 83 c1 08          	add    $0x8,%r9
    4795:	c4 e2 49 f7 c0       	shlx   %esi,%eax,%eax
    479a:	29 f8                	sub    %edi,%eax
    479c:	41 88 71 fb          	mov    %sil,-0x5(%r9)
    47a0:	66 41 89 41 f8       	mov    %ax,-0x8(%r9)
    47a5:	41 8b 04 94          	mov    (%r12,%rdx,4),%eax
    47a9:	41 88 41 fa          	mov    %al,-0x6(%r9)
    47ad:	8b 44 95 00          	mov    0x0(%rbp,%rdx,4),%eax
    47b1:	41 89 41 fc          	mov    %eax,-0x4(%r9)
    47b5:	41 39 ca             	cmp    %ecx,%r10d
    47b8:	77 b6                	ja     4770 <__ctype_b_loc@plt+0x1ec0>
    47ba:	5b                   	pop    %rbx
    47bb:	5d                   	pop    %rbp
    47bc:	41 5c                	pop    %r12
    47be:	41 5d                	pop    %r13
    47c0:	41 5e                	pop    %r14
    47c2:	41 5f                	pop    %r15
    47c4:	c3                   	ret    
    47c5:	4c 89 4c 24 d8       	mov    %r9,-0x28(%rsp)
    47ca:	4a 8d 44 73 02       	lea    0x2(%rbx,%r14,2),%rax
    47cf:	4c 8b 5c 24 e8       	mov    -0x18(%rsp),%r11
    47d4:	31 ff                	xor    %edi,%edi
    47d6:	48 89 54 24 e0       	mov    %rdx,-0x20(%rsp)
    47db:	45 31 f6             	xor    %r14d,%r14d
    47de:	48 89 c2             	mov    %rax,%rdx
    47e1:	49 bf 01 01 01 01 01 	movabs $0x101010101010101,%r15
    47e8:	01 01 01 
    47eb:	4c 0f bf 0b          	movswq (%rbx),%r9
    47ef:	b8 08 00 00 00       	mov    $0x8,%eax
    47f4:	4b 89 3c 33          	mov    %rdi,(%r11,%r14,1)
    47f8:	4f 8d 04 33          	lea    (%r11,%r14,1),%r8
    47fc:	4d 89 ca             	mov    %r9,%r10
    47ff:	66 41 83 f9 08       	cmp    $0x8,%r9w
    4804:	7e 19                	jle    481f <__ctype_b_loc@plt+0x1f6f>
    4806:	66 2e 0f 1f 84 00 00 	cs nopw 0x0(%rax,%rax,1)
    480d:	00 00 00 
    4810:	48 63 c8             	movslq %eax,%rcx
    4813:	83 c0 08             	add    $0x8,%eax
    4816:	49 89 3c 08          	mov    %rdi,(%r8,%rcx,1)
    481a:	41 39 c1             	cmp    %eax,%r9d
    481d:	7f f1                	jg     4810 <__ctype_b_loc@plt+0x1f60>
    481f:	48 83 c3 02          	add    $0x2,%rbx
    4823:	4d 01 d6             	add    %r10,%r14
    4826:	4c 01 ff             	add    %r15,%rdi
    4829:	48 39 da             	cmp    %rbx,%rdx
    482c:	75 bd                	jne    47eb <__ctype_b_loc@plt+0x1f3b>
    482e:	4c 8b 4c 24 d8       	mov    -0x28(%rsp),%r9
    4833:	48 8b 54 24 e0       	mov    -0x20(%rsp),%rdx
    4838:	8b 44 24 f0          	mov    -0x10(%rsp),%eax
    483c:	48 85 c0             	test   %rax,%rax
    483f:	0f 84 75 ff ff ff    	je     47ba <__ctype_b_loc@plt+0x1f0a>
    4845:	48 83 e8 01          	sub    $0x1,%rax
    4849:	48 8b 4c 24 e8       	mov    -0x18(%rsp),%rcx
    484e:	48 83 e0 fe          	and    $0xfffffffffffffffe,%rax
    4852:	4d 8d 54 05 6c       	lea    0x6c(%r13,%rax,1),%r10
    4857:	31 c0                	xor    %eax,%eax
    4859:	44 0f b6 01          	movzbl (%rcx),%r8d
    485d:	48 89 d7             	mov    %rdx,%rdi
    4860:	48 83 c1 02          	add    $0x2,%rcx
    4864:	48 21 c7             	and    %rax,%rdi
    4867:	48 01 f0             	add    %rsi,%rax
    486a:	45 89 44 f9 04       	mov    %r8d,0x4(%r9,%rdi,8)
    486f:	48 89 d7             	mov    %rdx,%rdi
    4872:	44 0f b6 41 ff       	movzbl -0x1(%rcx),%r8d
    4877:	48 21 c7             	and    %rax,%rdi
    487a:	48 01 f0             	add    %rsi,%rax
    487d:	45 89 44 f9 04       	mov    %r8d,0x4(%r9,%rdi,8)
    4882:	48 21 d0             	and    %rdx,%rax
    4885:	49 39 ca             	cmp    %rcx,%r10
    4888:	75 cf                	jne    4859 <__ctype_b_loc@plt+0x1fa9>
    488a:	e9 c7 fe ff ff       	jmp    4756 <__ctype_b_loc@plt+0x1ea6>
    488f:	48 8b 44 24 e0       	mov    -0x20(%rsp),%rax
    4894:	48 8b 5c 24 f8       	mov    -0x8(%rsp),%rbx
    4899:	48 89 18             	mov    %rbx,(%rax)
    489c:	eb 9a                	jmp    4838 <__ctype_b_loc@plt+0x1f88>
    489e:	66 90                	xchg   %ax,%ax
    48a0:	41 57                	push   %r15
    48a2:	49 89 d7             	mov    %rdx,%r15
    48a5:	41 56                	push   %r14
    48a7:	4d 89 c6             	mov    %r8,%r14
    48aa:	41 55                	push   %r13
    48ac:	41 54                	push   %r12
    48ae:	49 89 cc             	mov    %rcx,%r12
    48b1:	55                   	push   %rbp
    48b2:	48 89 fd             	mov    %rdi,%rbp
    48b5:	53                   	push   %rbx
    48b6:	48 83 ec 38          	sub    $0x38,%rsp
    48ba:	8b 1e                	mov    (%rsi),%ebx
    48bc:	48 89 74 24 10       	mov    %rsi,0x10(%rsp)
    48c1:	64 48 8b 04 25 28 00 	mov    %fs:0x28,%rax
    48c8:	00 00 
    48ca:	48 89 44 24 28       	mov    %rax,0x28(%rsp)
    48cf:	31 c0                	xor    %eax,%eax
    48d1:	49 83 f8 07          	cmp    $0x7,%r8
    48d5:	77 71                	ja     4948 <__ctype_b_loc@plt+0x2098>
    48d7:	48 8d 4c 24 20       	lea    0x20(%rsp),%rcx
    48dc:	4c 89 c2             	mov    %r8,%rdx
    48df:	49 89 f5             	mov    %rsi,%r13
    48e2:	4c 89 e6             	mov    %r12,%rsi
    48e5:	48 c7 44 24 20 00 00 	movq   $0x0,0x20(%rsp)
    48ec:	00 00 
    48ee:	48 89 cf             	mov    %rcx,%rdi
    48f1:	e8 0a de ff ff       	call   2700 <memcpy@plt>
    48f6:	4c 89 fa             	mov    %r15,%rdx
    48f9:	4c 89 ee             	mov    %r13,%rsi
    48fc:	48 89 ef             	mov    %rbp,%rdi
    48ff:	48 89 c1             	mov    %rax,%rcx
    4902:	41 b8 08 00 00 00    	mov    $0x8,%r8d
    4908:	e8 93 ff ff ff       	call   48a0 <__ctype_b_loc@plt+0x1ff0>
    490d:	48 83 f8 88          	cmp    $0xffffffffffffff88,%rax
    4911:	77 0e                	ja     4921 <__ctype_b_loc@plt+0x2071>
    4913:	49 39 c6             	cmp    %rax,%r14
    4916:	48 c7 c2 ec ff ff ff 	mov    $0xffffffffffffffec,%rdx
    491d:	48 0f 42 c2          	cmovb  %rdx,%rax
    4921:	48 8b 54 24 28       	mov    0x28(%rsp),%rdx
    4926:	64 48 2b 14 25 28 00 	sub    %fs:0x28,%rdx
    492d:	00 00 
    492f:	0f 85 a2 02 00 00    	jne    4bd7 <__ctype_b_loc@plt+0x2327>
    4935:	48 83 c4 38          	add    $0x38,%rsp
    4939:	5b                   	pop    %rbx
    493a:	5d                   	pop    %rbp
    493b:	41 5c                	pop    %r12
    493d:	41 5d                	pop    %r13
    493f:	41 5e                	pop    %r14
    4941:	41 5f                	pop    %r15
    4943:	c3                   	ret    
    4944:	0f 1f 40 00          	nopl   0x0(%rax)
    4948:	8d 53 01             	lea    0x1(%rbx),%edx
    494b:	31 f6                	xor    %esi,%esi
    494d:	48 89 d3             	mov    %rdx,%rbx
    4950:	48 01 d2             	add    %rdx,%rdx
    4953:	e8 08 dd ff ff       	call   2660 <memset@plt>
    4958:	41 8b 14 24          	mov    (%r12),%edx
    495c:	48 c7 c0 d4 ff ff ff 	mov    $0xffffffffffffffd4,%rax
    4963:	41 89 d5             	mov    %edx,%r13d
    4966:	41 83 e5 0f          	and    $0xf,%r13d
    496a:	41 8d 4d 05          	lea    0x5(%r13),%ecx
    496e:	83 f9 0f             	cmp    $0xf,%ecx
    4971:	77 ae                	ja     4921 <__ctype_b_loc@plt+0x2071>
    4973:	41 ba 01 00 00 00    	mov    $0x1,%r10d
    4979:	4b 8d 04 34          	lea    (%r12,%r14,1),%rax
    497d:	41 89 0f             	mov    %ecx,(%r15)
    4980:	c1 ea 04             	shr    $0x4,%edx
    4983:	41 d3 e2             	shl    %cl,%r10d
    4986:	48 89 44 24 08       	mov    %rax,0x8(%rsp)
    498b:	41 83 c5 06          	add    $0x6,%r13d
    498f:	4c 89 e6             	mov    %r12,%rsi
    4992:	4c 89 64 24 18       	mov    %r12,0x18(%rsp)
    4997:	45 8d 42 01          	lea    0x1(%r10),%r8d
    499b:	31 c9                	xor    %ecx,%ecx
    499d:	bf 04 00 00 00       	mov    $0x4,%edi
    49a2:	41 bf 01 00 00 00    	mov    $0x1,%r15d
    49a8:	4c 8d 58 f9          	lea    -0x7(%rax),%r11
    49ac:	4c 8d 70 fc          	lea    -0x4(%rax),%r14
    49b0:	eb 70                	jmp    4a22 <__ctype_b_loc@plt+0x2172>
    49b2:	66 0f 1f 44 00 00    	nopw   0x0(%rax,%rax,1)
    49b8:	83 ef 01             	sub    $0x1,%edi
    49bb:	83 e8 01             	sub    $0x1,%eax
    49be:	44 89 c2             	mov    %r8d,%edx
    49c1:	44 8d 49 01          	lea    0x1(%rcx),%r9d
    49c5:	29 c2                	sub    %eax,%edx
    49c7:	41 01 c0             	add    %eax,%r8d
    49ca:	85 c0                	test   %eax,%eax
    49cc:	66 89 44 4d 00       	mov    %ax,0x0(%rbp,%rcx,2)
    49d1:	44 0f 49 c2          	cmovns %edx,%r8d
    49d5:	45 39 d0             	cmp    %r10d,%r8d
    49d8:	7d 18                	jge    49f2 <__ctype_b_loc@plt+0x2142>
    49da:	41 83 f8 01          	cmp    $0x1,%r8d
    49de:	0f 8e 5c 01 00 00    	jle    4b40 <__ctype_b_loc@plt+0x2290>
    49e4:	41 0f bd c8          	bsr    %r8d,%ecx
    49e8:	45 89 fa             	mov    %r15d,%r10d
    49eb:	44 8d 69 01          	lea    0x1(%rcx),%r13d
    49ef:	41 d3 e2             	shl    %cl,%r10d
    49f2:	44 39 cb             	cmp    %r9d,%ebx
    49f5:	0f 86 45 01 00 00    	jbe    4b40 <__ctype_b_loc@plt+0x2290>
    49fb:	89 fa                	mov    %edi,%edx
    49fd:	c1 fa 03             	sar    $0x3,%edx
    4a00:	48 63 d2             	movslq %edx,%rdx
    4a03:	48 01 f2             	add    %rsi,%rdx
    4a06:	49 39 f3             	cmp    %rsi,%r11
    4a09:	0f 82 11 01 00 00    	jb     4b20 <__ctype_b_loc@plt+0x2270>
    4a0f:	83 e7 07             	and    $0x7,%edi
    4a12:	48 89 d6             	mov    %rdx,%rsi
    4a15:	8b 16                	mov    (%rsi),%edx
    4a17:	89 f9                	mov    %edi,%ecx
    4a19:	d3 ea                	shr    %cl,%edx
    4a1b:	85 c0                	test   %eax,%eax
    4a1d:	74 41                	je     4a60 <__ctype_b_loc@plt+0x21b0>
    4a1f:	44 89 c9             	mov    %r9d,%ecx
    4a22:	47 8d 24 12          	lea    (%r10,%r10,1),%r12d
    4a26:	41 8d 42 ff          	lea    -0x1(%r10),%eax
    4a2a:	44 01 ef             	add    %r13d,%edi
    4a2d:	45 89 e1             	mov    %r12d,%r9d
    4a30:	21 d0                	and    %edx,%eax
    4a32:	45 29 c1             	sub    %r8d,%r9d
    4a35:	41 83 e9 01          	sub    $0x1,%r9d
    4a39:	44 39 c8             	cmp    %r9d,%eax
    4a3c:	0f 82 76 ff ff ff    	jb     49b8 <__ctype_b_loc@plt+0x2108>
    4a42:	41 8d 44 24 ff       	lea    -0x1(%r12),%eax
    4a47:	21 d0                	and    %edx,%eax
    4a49:	89 c2                	mov    %eax,%edx
    4a4b:	44 29 ca             	sub    %r9d,%edx
    4a4e:	44 39 d0             	cmp    %r10d,%eax
    4a51:	0f 4d c2             	cmovge %edx,%eax
    4a54:	e9 62 ff ff ff       	jmp    49bb <__ctype_b_loc@plt+0x210b>
    4a59:	0f 1f 80 00 00 00 00 	nopl   0x0(%rax)
    4a60:	89 d0                	mov    %edx,%eax
    4a62:	f7 d0                	not    %eax
    4a64:	0d 00 00 00 80       	or     $0x80000000,%eax
    4a69:	f3 0f bc c0          	tzcnt  %eax,%eax
    4a6d:	41 89 c4             	mov    %eax,%r12d
    4a70:	41 d1 ec             	shr    %r12d
    4a73:	83 f8 17             	cmp    $0x17,%eax
    4a76:	77 0b                	ja     4a83 <__ctype_b_loc@plt+0x21d3>
    4a78:	e9 23 01 00 00       	jmp    4ba0 <__ctype_b_loc@plt+0x22f0>
    4a7d:	0f 1f 00             	nopl   (%rax)
    4a80:	48 89 c6             	mov    %rax,%rsi
    4a83:	41 83 c1 24          	add    $0x24,%r9d
    4a87:	49 39 f3             	cmp    %rsi,%r11
    4a8a:	72 6c                	jb     4af8 <__ctype_b_loc@plt+0x2248>
    4a8c:	8b 56 03             	mov    0x3(%rsi),%edx
    4a8f:	48 8d 46 03          	lea    0x3(%rsi),%rax
    4a93:	89 f9                	mov    %edi,%ecx
    4a95:	d3 ea                	shr    %cl,%edx
    4a97:	89 d1                	mov    %edx,%ecx
    4a99:	f7 d1                	not    %ecx
    4a9b:	81 c9 00 00 00 80    	or     $0x80000000,%ecx
    4aa1:	f3 0f bc c9          	tzcnt  %ecx,%ecx
    4aa5:	41 89 cc             	mov    %ecx,%r12d
    4aa8:	41 d1 ec             	shr    %r12d
    4aab:	83 f9 17             	cmp    $0x17,%ecx
    4aae:	77 d0                	ja     4a80 <__ctype_b_loc@plt+0x21d0>
    4ab0:	43 8d 0c 24          	lea    (%r12,%r12,1),%ecx
    4ab4:	41 01 cc             	add    %ecx,%r12d
    4ab7:	d3 ea                	shr    %cl,%edx
    4ab9:	8d 7c 0f 02          	lea    0x2(%rdi,%rcx,1),%edi
    4abd:	45 01 cc             	add    %r9d,%r12d
    4ac0:	41 89 d1             	mov    %edx,%r9d
    4ac3:	41 83 e1 03          	and    $0x3,%r9d
    4ac7:	45 01 e1             	add    %r12d,%r9d
    4aca:	44 39 cb             	cmp    %r9d,%ebx
    4acd:	0f 86 f7 00 00 00    	jbe    4bca <__ctype_b_loc@plt+0x231a>
    4ad3:	89 fe                	mov    %edi,%esi
    4ad5:	c1 fe 03             	sar    $0x3,%esi
    4ad8:	48 63 f6             	movslq %esi,%rsi
    4adb:	48 01 c6             	add    %rax,%rsi
    4ade:	49 39 c3             	cmp    %rax,%r11
    4ae1:	0f 82 c9 00 00 00    	jb     4bb0 <__ctype_b_loc@plt+0x2300>
    4ae7:	83 e7 07             	and    $0x7,%edi
    4aea:	8b 16                	mov    (%rsi),%edx
    4aec:	89 f9                	mov    %edi,%ecx
    4aee:	d3 ea                	shr    %cl,%edx
    4af0:	e9 2a ff ff ff       	jmp    4a1f <__ctype_b_loc@plt+0x216f>
    4af5:	0f 1f 00             	nopl   (%rax)
    4af8:	44 29 de             	sub    %r11d,%esi
    4afb:	4c 89 f0             	mov    %r14,%rax
    4afe:	8d 0c f7             	lea    (%rdi,%rsi,8),%ecx
    4b01:	48 8b 74 24 08       	mov    0x8(%rsp),%rsi
    4b06:	89 cf                	mov    %ecx,%edi
    4b08:	8b 76 fc             	mov    -0x4(%rsi),%esi
    4b0b:	83 e7 1f             	and    $0x1f,%edi
    4b0e:	89 74 24 04          	mov    %esi,0x4(%rsp)
    4b12:	89 f2                	mov    %esi,%edx
    4b14:	e9 7c ff ff ff       	jmp    4a95 <__ctype_b_loc@plt+0x21e5>
    4b19:	0f 1f 80 00 00 00 00 	nopl   0x0(%rax)
    4b20:	49 39 d6             	cmp    %rdx,%r14
    4b23:	0f 83 e6 fe ff ff    	jae    4a0f <__ctype_b_loc@plt+0x215f>
    4b29:	44 29 f6             	sub    %r14d,%esi
    4b2c:	8d 3c f7             	lea    (%rdi,%rsi,8),%edi
    4b2f:	4c 89 f6             	mov    %r14,%rsi
    4b32:	83 e7 1f             	and    $0x1f,%edi
    4b35:	e9 db fe ff ff       	jmp    4a15 <__ctype_b_loc@plt+0x2165>
    4b3a:	66 0f 1f 44 00 00    	nopw   0x0(%rax,%rax,1)
    4b40:	4c 8b 64 24 18       	mov    0x18(%rsp),%r12
    4b45:	48 c7 c0 ec ff ff ff 	mov    $0xffffffffffffffec,%rax
    4b4c:	41 83 f8 01          	cmp    $0x1,%r8d
    4b50:	0f 85 cb fd ff ff    	jne    4921 <__ctype_b_loc@plt+0x2071>
    4b56:	48 c7 c0 d0 ff ff ff 	mov    $0xffffffffffffffd0,%rax
    4b5d:	44 39 cb             	cmp    %r9d,%ebx
    4b60:	0f 82 bb fd ff ff    	jb     4921 <__ctype_b_loc@plt+0x2071>
    4b66:	48 c7 c0 ec ff ff ff 	mov    $0xffffffffffffffec,%rax
    4b6d:	83 ff 20             	cmp    $0x20,%edi
    4b70:	0f 8f ab fd ff ff    	jg     4921 <__ctype_b_loc@plt+0x2071>
    4b76:	48 8b 44 24 10       	mov    0x10(%rsp),%rax
    4b7b:	83 c7 07             	add    $0x7,%edi
    4b7e:	41 83 e9 01          	sub    $0x1,%r9d
    4b82:	c1 ff 03             	sar    $0x3,%edi
    4b85:	44 89 08             	mov    %r9d,(%rax)
    4b88:	48 63 c7             	movslq %edi,%rax
    4b8b:	48 01 c6             	add    %rax,%rsi
    4b8e:	48 89 f0             	mov    %rsi,%rax
    4b91:	4c 29 e0             	sub    %r12,%rax
    4b94:	e9 88 fd ff ff       	jmp    4921 <__ctype_b_loc@plt+0x2071>
    4b99:	0f 1f 80 00 00 00 00 	nopl   0x0(%rax)
    4ba0:	48 89 f0             	mov    %rsi,%rax
    4ba3:	e9 08 ff ff ff       	jmp    4ab0 <__ctype_b_loc@plt+0x2200>
    4ba8:	0f 1f 84 00 00 00 00 	nopl   0x0(%rax,%rax,1)
    4baf:	00 
    4bb0:	49 39 f6             	cmp    %rsi,%r14
    4bb3:	0f 83 2e ff ff ff    	jae    4ae7 <__ctype_b_loc@plt+0x2237>
    4bb9:	44 29 f0             	sub    %r14d,%eax
    4bbc:	4c 89 f6             	mov    %r14,%rsi
    4bbf:	8d 3c c7             	lea    (%rdi,%rax,8),%edi
    4bc2:	83 e7 1f             	and    $0x1f,%edi
    4bc5:	e9 20 ff ff ff       	jmp    4aea <__ctype_b_loc@plt+0x223a>
    4bca:	4c 8b 64 24 18       	mov    0x18(%rsp),%r12
    4bcf:	48 89 c6             	mov    %rax,%rsi
    4bd2:	e9 6e ff ff ff       	jmp    4b45 <__ctype_b_loc@plt+0x2295>
    4bd7:	e8 f4 d9 ff ff       	call   25d0 <__stack_chk_fail@plt>
    4bdc:	0f 1f 40 00          	nopl   0x0(%rax)
    4be0:	41 57                	push   %r15
    4be2:	49 89 d7             	mov    %rdx,%r15
    4be5:	41 56                	push   %r14
    4be7:	41 55                	push   %r13
    4be9:	4d 89 c5             	mov    %r8,%r13
    4bec:	41 54                	push   %r12
    4bee:	49 89 cc             	mov    %rcx,%r12
    4bf1:	55                   	push   %rbp
    4bf2:	48 89 fd             	mov    %rdi,%rbp
    4bf5:	53                   	push   %rbx
    4bf6:	48 83 ec 38          	sub    $0x38,%rsp
    4bfa:	8b 1e                	mov    (%rsi),%ebx
    4bfc:	48 89 74 24 10       	mov    %rsi,0x10(%rsp)
    4c01:	64 48 8b 04 25 28 00 	mov    %fs:0x28,%rax
    4c08:	00 00 
    4c0a:	48 89 44 24 28       	mov    %rax,0x28(%rsp)
    4c0f:	31 c0                	xor    %eax,%eax
    4c11:	49 83 f8 07          	cmp    $0x7,%r8
    4c15:	77 71                	ja     4c88 <__ctype_b_loc@plt+0x23d8>
    4c17:	48 8d 4c 24 20       	lea    0x20(%rsp),%rcx
    4c1c:	4c 89 c2             	mov    %r8,%rdx
    4c1f:	49 89 f6             	mov    %rsi,%r14
    4c22:	4c 89 e6             	mov    %r12,%rsi
    4c25:	48 c7 44 24 20 00 00 	movq   $0x0,0x20(%rsp)
    4c2c:	00 00 
    4c2e:	48 89 cf             	mov    %rcx,%rdi
    4c31:	e8 ca da ff ff       	call   2700 <memcpy@plt>
    4c36:	4c 89 fa             	mov    %r15,%rdx
    4c39:	4c 89 f6             	mov    %r14,%rsi
    4c3c:	48 89 ef             	mov    %rbp,%rdi
    4c3f:	48 89 c1             	mov    %rax,%rcx
    4c42:	41 b8 08 00 00 00    	mov    $0x8,%r8d
    4c48:	e8 53 fc ff ff       	call   48a0 <__ctype_b_loc@plt+0x1ff0>
    4c4d:	48 83 f8 88          	cmp    $0xffffffffffffff88,%rax
    4c51:	77 0e                	ja     4c61 <__ctype_b_loc@plt+0x23b1>
    4c53:	49 39 c5             	cmp    %rax,%r13
    4c56:	48 c7 c2 ec ff ff ff 	mov    $0xffffffffffffffec,%rdx
    4c5d:	48 0f 42 c2          	cmovb  %rdx,%rax
    4c61:	48 8b 54 24 28       	mov    0x28(%rsp),%rdx
    4c66:	64 48 2b 14 25 28 00 	sub    %fs:0x28,%rdx
    4c6d:	00 00 
    4c6f:	0f 85 a7 02 00 00    	jne    4f1c <__ctype_b_loc@plt+0x266c>
    4c75:	48 83 c4 38          	add    $0x38,%rsp
    4c79:	5b                   	pop    %rbx
    4c7a:	5d                   	pop    %rbp
    4c7b:	41 5c                	pop    %r12
    4c7d:	41 5d                	pop    %r13
    4c7f:	41 5e                	pop    %r14
    4c81:	41 5f                	pop    %r15
    4c83:	c3                   	ret    
    4c84:	0f 1f 40 00          	nopl   0x0(%rax)
    4c88:	8d 53 01             	lea    0x1(%rbx),%edx
    4c8b:	31 f6                	xor    %esi,%esi
    4c8d:	48 89 d3             	mov    %rdx,%rbx
    4c90:	48 01 d2             	add    %rdx,%rdx
    4c93:	e8 c8 d9 ff ff       	call   2660 <memset@plt>
    4c98:	41 8b 0c 24          	mov    (%r12),%ecx
    4c9c:	48 c7 c0 d4 ff ff ff 	mov    $0xffffffffffffffd4,%rax
    4ca3:	41 89 ce             	mov    %ecx,%r14d
    4ca6:	41 83 e6 0f          	and    $0xf,%r14d
    4caa:	41 8d 56 05          	lea    0x5(%r14),%edx
    4cae:	83 fa 0f             	cmp    $0xf,%edx
    4cb1:	77 ae                	ja     4c61 <__ctype_b_loc@plt+0x23b1>
    4cb3:	4f 8d 1c 2c          	lea    (%r12,%r13,1),%r11
    4cb7:	41 b8 01 00 00 00    	mov    $0x1,%r8d
    4cbd:	41 89 17             	mov    %edx,(%r15)
    4cc0:	89 c8                	mov    %ecx,%eax
    4cc2:	c4 42 69 f7 c0       	shlx   %edx,%r8d,%r8d
    4cc7:	4c 89 da             	mov    %r11,%rdx
    4cca:	4c 89 e1             	mov    %r12,%rcx
    4ccd:	c1 e8 04             	shr    $0x4,%eax
    4cd0:	48 83 ea 04          	sub    $0x4,%rdx
    4cd4:	4c 89 5c 24 08       	mov    %r11,0x8(%rsp)
    4cd9:	41 8d 78 01          	lea    0x1(%r8),%edi
    4cdd:	45 31 c9             	xor    %r9d,%r9d
    4ce0:	4c 89 64 24 18       	mov    %r12,0x18(%rsp)
    4ce5:	41 83 c6 06          	add    $0x6,%r14d
    4ce9:	be 04 00 00 00       	mov    $0x4,%esi
    4cee:	49 89 d4             	mov    %rdx,%r12
    4cf1:	41 bf 01 00 00 00    	mov    $0x1,%r15d
    4cf7:	4d 8d 5b f9          	lea    -0x7(%r11),%r11
    4cfb:	eb 67                	jmp    4d64 <__ctype_b_loc@plt+0x24b4>
    4cfd:	0f 1f 00             	nopl   (%rax)
    4d00:	83 ee 01             	sub    $0x1,%esi
    4d03:	83 ea 01             	sub    $0x1,%edx
    4d06:	89 f8                	mov    %edi,%eax
    4d08:	45 8d 51 01          	lea    0x1(%r9),%r10d
    4d0c:	29 d0                	sub    %edx,%eax
    4d0e:	01 d7                	add    %edx,%edi
    4d10:	85 d2                	test   %edx,%edx
    4d12:	66 42 89 54 4d 00    	mov    %dx,0x0(%rbp,%r9,2)
    4d18:	0f 49 f8             	cmovns %eax,%edi
    4d1b:	44 39 c7             	cmp    %r8d,%edi
    4d1e:	7d 16                	jge    4d36 <__ctype_b_loc@plt+0x2486>
    4d20:	83 ff 01             	cmp    $0x1,%edi
    4d23:	0f 8e 57 01 00 00    	jle    4e80 <__ctype_b_loc@plt+0x25d0>
    4d29:	44 0f bd c7          	bsr    %edi,%r8d
    4d2d:	45 8d 70 01          	lea    0x1(%r8),%r14d
    4d31:	c4 42 39 f7 c7       	shlx   %r8d,%r15d,%r8d
    4d36:	44 39 d3             	cmp    %r10d,%ebx
    4d39:	0f 86 41 01 00 00    	jbe    4e80 <__ctype_b_loc@plt+0x25d0>
    4d3f:	89 f0                	mov    %esi,%eax
    4d41:	c1 f8 03             	sar    $0x3,%eax
    4d44:	48 98                	cltq   
    4d46:	48 01 c8             	add    %rcx,%rax
    4d49:	49 39 cb             	cmp    %rcx,%r11
    4d4c:	0f 82 0e 01 00 00    	jb     4e60 <__ctype_b_loc@plt+0x25b0>
    4d52:	83 e6 07             	and    $0x7,%esi
    4d55:	48 89 c1             	mov    %rax,%rcx
    4d58:	c4 e2 4b f7 01       	shrx   %esi,(%rcx),%eax
    4d5d:	85 d2                	test   %edx,%edx
    4d5f:	74 3f                	je     4da0 <__ctype_b_loc@plt+0x24f0>
    4d61:	45 89 d1             	mov    %r10d,%r9d
    4d64:	47 8d 2c 00          	lea    (%r8,%r8,1),%r13d
    4d68:	41 8d 50 ff          	lea    -0x1(%r8),%edx
    4d6c:	44 01 f6             	add    %r14d,%esi
    4d6f:	45 89 ea             	mov    %r13d,%r10d
    4d72:	21 c2                	and    %eax,%edx
    4d74:	41 29 fa             	sub    %edi,%r10d
    4d77:	41 83 ea 01          	sub    $0x1,%r10d
    4d7b:	44 39 d2             	cmp    %r10d,%edx
    4d7e:	72 80                	jb     4d00 <__ctype_b_loc@plt+0x2450>
    4d80:	41 8d 55 ff          	lea    -0x1(%r13),%edx
    4d84:	21 c2                	and    %eax,%edx
    4d86:	89 d0                	mov    %edx,%eax
    4d88:	44 29 d0             	sub    %r10d,%eax
    4d8b:	44 39 c2             	cmp    %r8d,%edx
    4d8e:	0f 4d d0             	cmovge %eax,%edx
    4d91:	e9 6d ff ff ff       	jmp    4d03 <__ctype_b_loc@plt+0x2453>
    4d96:	66 2e 0f 1f 84 00 00 	cs nopw 0x0(%rax,%rax,1)
    4d9d:	00 00 00 
    4da0:	89 c2                	mov    %eax,%edx
    4da2:	f7 d2                	not    %edx
    4da4:	81 ca 00 00 00 80    	or     $0x80000000,%edx
    4daa:	f3 0f bc d2          	tzcnt  %edx,%edx
    4dae:	41 89 d1             	mov    %edx,%r9d
    4db1:	41 d1 e9             	shr    %r9d
    4db4:	83 fa 17             	cmp    $0x17,%edx
    4db7:	77 0a                	ja     4dc3 <__ctype_b_loc@plt+0x2513>
    4db9:	e9 22 01 00 00       	jmp    4ee0 <__ctype_b_loc@plt+0x2630>
    4dbe:	66 90                	xchg   %ax,%ax
    4dc0:	48 89 d1             	mov    %rdx,%rcx
    4dc3:	41 83 c2 24          	add    $0x24,%r10d
    4dc7:	49 39 cb             	cmp    %rcx,%r11
    4dca:	72 6c                	jb     4e38 <__ctype_b_loc@plt+0x2588>
    4dcc:	8b 41 03             	mov    0x3(%rcx),%eax
    4dcf:	48 8d 51 03          	lea    0x3(%rcx),%rdx
    4dd3:	c4 e2 4b f7 c0       	shrx   %esi,%eax,%eax
    4dd8:	89 c1                	mov    %eax,%ecx
    4dda:	f7 d1                	not    %ecx
    4ddc:	81 c9 00 00 00 80    	or     $0x80000000,%ecx
    4de2:	f3 0f bc c9          	tzcnt  %ecx,%ecx
    4de6:	41 89 c9             	mov    %ecx,%r9d
    4de9:	41 d1 e9             	shr    %r9d
    4dec:	83 f9 17             	cmp    $0x17,%ecx
    4def:	77 cf                	ja     4dc0 <__ctype_b_loc@plt+0x2510>
    4df1:	43 8d 0c 09          	lea    (%r9,%r9,1),%ecx
    4df5:	41 01 c9             	add    %ecx,%r9d
    4df8:	8d 74 0e 02          	lea    0x2(%rsi,%rcx,1),%esi
    4dfc:	45 01 d1             	add    %r10d,%r9d
    4dff:	c4 62 73 f7 d0       	shrx   %ecx,%eax,%r10d
    4e04:	41 83 e2 03          	and    $0x3,%r10d
    4e08:	45 01 ca             	add    %r9d,%r10d
    4e0b:	44 39 d3             	cmp    %r10d,%ebx
    4e0e:	0f 86 fb 00 00 00    	jbe    4f0f <__ctype_b_loc@plt+0x265f>
    4e14:	89 f1                	mov    %esi,%ecx
    4e16:	c1 f9 03             	sar    $0x3,%ecx
    4e19:	48 63 c9             	movslq %ecx,%rcx
    4e1c:	48 01 d1             	add    %rdx,%rcx
    4e1f:	49 39 d3             	cmp    %rdx,%r11
    4e22:	0f 82 c8 00 00 00    	jb     4ef0 <__ctype_b_loc@plt+0x2640>
    4e28:	83 e6 07             	and    $0x7,%esi
    4e2b:	c4 e2 4b f7 01       	shrx   %esi,(%rcx),%eax
    4e30:	e9 2c ff ff ff       	jmp    4d61 <__ctype_b_loc@plt+0x24b1>
    4e35:	0f 1f 00             	nopl   (%rax)
    4e38:	44 29 d9             	sub    %r11d,%ecx
    4e3b:	4c 89 e2             	mov    %r12,%rdx
    4e3e:	8d 04 ce             	lea    (%rsi,%rcx,8),%eax
    4e41:	48 8b 4c 24 08       	mov    0x8(%rsp),%rcx
    4e46:	89 c6                	mov    %eax,%esi
    4e48:	8b 49 fc             	mov    -0x4(%rcx),%ecx
    4e4b:	83 e6 1f             	and    $0x1f,%esi
    4e4e:	89 4c 24 04          	mov    %ecx,0x4(%rsp)
    4e52:	c4 e2 7b f7 c1       	shrx   %eax,%ecx,%eax
    4e57:	e9 7c ff ff ff       	jmp    4dd8 <__ctype_b_loc@plt+0x2528>
    4e5c:	0f 1f 40 00          	nopl   0x0(%rax)
    4e60:	49 39 c4             	cmp    %rax,%r12
    4e63:	0f 83 e9 fe ff ff    	jae    4d52 <__ctype_b_loc@plt+0x24a2>
    4e69:	44 29 e1             	sub    %r12d,%ecx
    4e6c:	8d 34 ce             	lea    (%rsi,%rcx,8),%esi
    4e6f:	4c 89 e1             	mov    %r12,%rcx
    4e72:	83 e6 1f             	and    $0x1f,%esi
    4e75:	e9 de fe ff ff       	jmp    4d58 <__ctype_b_loc@plt+0x24a8>
    4e7a:	66 0f 1f 44 00 00    	nopw   0x0(%rax,%rax,1)
    4e80:	4c 8b 64 24 18       	mov    0x18(%rsp),%r12
    4e85:	48 c7 c0 ec ff ff ff 	mov    $0xffffffffffffffec,%rax
    4e8c:	83 ff 01             	cmp    $0x1,%edi
    4e8f:	0f 85 cc fd ff ff    	jne    4c61 <__ctype_b_loc@plt+0x23b1>
    4e95:	48 c7 c0 d0 ff ff ff 	mov    $0xffffffffffffffd0,%rax
    4e9c:	44 39 d3             	cmp    %r10d,%ebx
    4e9f:	0f 82 bc fd ff ff    	jb     4c61 <__ctype_b_loc@plt+0x23b1>
    4ea5:	48 c7 c0 ec ff ff ff 	mov    $0xffffffffffffffec,%rax
    4eac:	83 fe 20             	cmp    $0x20,%esi
    4eaf:	0f 8f ac fd ff ff    	jg     4c61 <__ctype_b_loc@plt+0x23b1>
    4eb5:	48 8b 44 24 10       	mov    0x10(%rsp),%rax
    4eba:	83 c6 07             	add    $0x7,%esi
    4ebd:	41 83 ea 01          	sub    $0x1,%r10d
    4ec1:	c1 fe 03             	sar    $0x3,%esi
    4ec4:	44 89 10             	mov    %r10d,(%rax)
    4ec7:	48 63 c6             	movslq %esi,%rax
    4eca:	48 01 c1             	add    %rax,%rcx
    4ecd:	48 89 c8             	mov    %rcx,%rax
    4ed0:	4c 29 e0             	sub    %r12,%rax
    4ed3:	e9 89 fd ff ff       	jmp    4c61 <__ctype_b_loc@plt+0x23b1>
    4ed8:	0f 1f 84 00 00 00 00 	nopl   0x0(%rax,%rax,1)
    4edf:	00 
    4ee0:	48 89 ca             	mov    %rcx,%rdx
    4ee3:	e9 09 ff ff ff       	jmp    4df1 <__ctype_b_loc@plt+0x2541>
    4ee8:	0f 1f 84 00 00 00 00 	nopl   0x0(%rax,%rax,1)
    4eef:	00 
    4ef0:	49 39 cc             	cmp    %rcx,%r12
    4ef3:	0f 83 2f ff ff ff    	jae    4e28 <__ctype_b_loc@plt+0x2578>
    4ef9:	44 29 e2             	sub    %r12d,%edx
    4efc:	4c 89 e1             	mov    %r12,%rcx
    4eff:	8d 34 d6             	lea    (%rsi,%rdx,8),%esi
    4f02:	83 e6 1f             	and    $0x1f,%esi
    4f05:	c4 e2 4b f7 01       	shrx   %esi,(%rcx),%eax
    4f0a:	e9 52 fe ff ff       	jmp    4d61 <__ctype_b_loc@plt+0x24b1>
    4f0f:	4c 8b 64 24 18       	mov    0x18(%rsp),%r12
    4f14:	48 89 d1             	mov    %rdx,%rcx
    4f17:	e9 69 ff ff ff       	jmp    4e85 <__ctype_b_loc@plt+0x25d5>
    4f1c:	e8 af d6 ff ff       	call   25d0 <__stack_chk_fail@plt>
    4f21:	66 66 2e 0f 1f 84 00 	data16 cs nopw 0x0(%rax,%rax,1)
    4f28:	00 00 00 00 
    4f2c:	0f 1f 40 00          	nopl   0x0(%rax)
    4f30:	41 57                	push   %r15
    4f32:	41 56                	push   %r14
    4f34:	41 55                	push   %r13
    4f36:	41 54                	push   %r12
    4f38:	45 89 c4             	mov    %r8d,%r12d
    4f3b:	55                   	push   %rbp
    4f3c:	48 89 f5             	mov    %rsi,%rbp
    4f3f:	53                   	push   %rbx
    4f40:	48 89 fb             	mov    %rdi,%rbx
    4f43:	48 81 ec a8 00 00 00 	sub    $0xa8,%rsp
    4f4a:	89 4c 24 0c          	mov    %ecx,0xc(%rsp)
    4f4e:	4c 8b ac 24 e8 00 00 	mov    0xe8(%rsp),%r13
    4f55:	00 
    4f56:	4c 8b b4 24 f0 00 00 	mov    0xf0(%rsp),%r14
    4f5d:	00 
    4f5e:	48 8b 84 24 f8 00 00 	mov    0xf8(%rsp),%rax
    4f65:	00 
    4f66:	4c 8b bc 24 18 01 00 	mov    0x118(%rsp),%r15
    4f6d:	00 
    4f6e:	64 48 8b 0c 25 28 00 	mov    %fs:0x28,%rcx
    4f75:	00 00 
    4f77:	48 89 8c 24 98 00 00 	mov    %rcx,0x98(%rsp)
    4f7e:	00 
    4f7f:	31 c9                	xor    %ecx,%ecx
    4f81:	83 fa 02             	cmp    $0x2,%edx
    4f84:	74 4a                	je     4fd0 <__ctype_b_loc@plt+0x2720>
    4f86:	83 fa 03             	cmp    $0x3,%edx
    4f89:	0f 84 21 01 00 00    	je     50b0 <__ctype_b_loc@plt+0x2800>
    4f8f:	83 fa 01             	cmp    $0x1,%edx
    4f92:	0f 84 b8 00 00 00    	je     5050 <__ctype_b_loc@plt+0x27a0>
    4f98:	48 89 06             	mov    %rax,(%rsi)
    4f9b:	31 c0                	xor    %eax,%eax
    4f9d:	48 8b 94 24 98 00 00 	mov    0x98(%rsp),%rdx
    4fa4:	00 
    4fa5:	64 48 2b 14 25 28 00 	sub    %fs:0x28,%rdx
    4fac:	00 00 
    4fae:	0f 85 96 01 00 00    	jne    514a <__ctype_b_loc@plt+0x289a>
    4fb4:	48 81 c4 a8 00 00 00 	add    $0xa8,%rsp
    4fbb:	5b                   	pop    %rbx
    4fbc:	5d                   	pop    %rbp
    4fbd:	41 5c                	pop    %r12
    4fbf:	41 5d                	pop    %r13
    4fc1:	41 5e                	pop    %r14
    4fc3:	41 5f                	pop    %r15
    4fc5:	c3                   	ret    
    4fc6:	66 2e 0f 1f 84 00 00 	cs nopw 0x0(%rax,%rax,1)
    4fcd:	00 00 00 
    4fd0:	4c 8d 54 24 20       	lea    0x20(%rsp),%r10
    4fd5:	4c 8b 84 24 e0 00 00 	mov    0xe0(%rsp),%r8
    4fdc:	00 
    4fdd:	48 8d 54 24 1c       	lea    0x1c(%rsp),%rdx
    4fe2:	4c 89 c9             	mov    %r9,%rcx
    4fe5:	48 8d 74 24 0c       	lea    0xc(%rsp),%rsi
    4fea:	4c 89 d7             	mov    %r10,%rdi
    4fed:	4c 89 14 24          	mov    %r10,(%rsp)
    4ff1:	e8 aa f8 ff ff       	call   48a0 <__ctype_b_loc@plt+0x1ff0>
    4ff6:	48 83 f8 88          	cmp    $0xffffffffffffff88,%rax
    4ffa:	0f 87 18 01 00 00    	ja     5118 <__ctype_b_loc@plt+0x2868>
    5000:	44 8b 4c 24 1c       	mov    0x1c(%rsp),%r9d
    5005:	45 39 cc             	cmp    %r9d,%r12d
    5008:	0f 82 0a 01 00 00    	jb     5118 <__ctype_b_loc@plt+0x2868>
    500e:	8b bc 24 20 01 00 00 	mov    0x120(%rsp),%edi
    5015:	4c 8b 14 24          	mov    (%rsp),%r10
    5019:	48 89 04 24          	mov    %rax,(%rsp)
    501d:	8b 54 24 0c          	mov    0xc(%rsp),%edx
    5021:	85 ff                	test   %edi,%edi
    5023:	0f 85 ff 00 00 00    	jne    5128 <__ctype_b_loc@plt+0x2878>
    5029:	48 83 ec 08          	sub    $0x8,%rsp
    502d:	4d 89 f0             	mov    %r14,%r8
    5030:	4c 89 e9             	mov    %r13,%rcx
    5033:	4c 89 d6             	mov    %r10,%rsi
    5036:	41 57                	push   %r15
    5038:	48 89 df             	mov    %rbx,%rdi
    503b:	e8 80 f0 ff ff       	call   40c0 <__ctype_b_loc@plt+0x1810>
    5040:	58                   	pop    %rax
    5041:	5a                   	pop    %rdx
    5042:	48 8b 04 24          	mov    (%rsp),%rax
    5046:	48 89 5d 00          	mov    %rbx,0x0(%rbp)
    504a:	e9 4e ff ff ff       	jmp    4f9d <__ctype_b_loc@plt+0x26ed>
    504f:	90                   	nop
    5050:	48 83 bc 24 e0 00 00 	cmpq   $0x0,0xe0(%rsp)
    5057:	00 00 
    5059:	48 c7 c0 b8 ff ff ff 	mov    $0xffffffffffffffb8,%rax
    5060:	0f 84 37 ff ff ff    	je     4f9d <__ctype_b_loc@plt+0x26ed>
    5066:	41 0f b6 09          	movzbl (%r9),%ecx
    506a:	48 c7 c0 ec ff ff ff 	mov    $0xffffffffffffffec,%rax
    5071:	3b 4c 24 0c          	cmp    0xc(%rsp),%ecx
    5075:	0f 87 22 ff ff ff    	ja     4f9d <__ctype_b_loc@plt+0x26ed>
    507b:	41 8b 44 8d 00       	mov    0x0(%r13,%rcx,4),%eax
    5080:	41 8b 14 8e          	mov    (%r14,%rcx,4),%edx
    5084:	45 31 d2             	xor    %r10d,%r10d
    5087:	c6 47 0b 00          	movb   $0x0,0xb(%rdi)
    508b:	48 c7 07 00 00 00 00 	movq   $0x0,(%rdi)
    5092:	89 47 0c             	mov    %eax,0xc(%rdi)
    5095:	b8 01 00 00 00       	mov    $0x1,%eax
    509a:	66 44 89 57 08       	mov    %r10w,0x8(%rdi)
    509f:	88 57 0a             	mov    %dl,0xa(%rdi)
    50a2:	48 89 7d 00          	mov    %rdi,0x0(%rbp)
    50a6:	e9 f2 fe ff ff       	jmp    4f9d <__ctype_b_loc@plt+0x26ed>
    50ab:	0f 1f 44 00 00       	nopl   0x0(%rax,%rax,1)
    50b0:	44 8b 8c 24 00 01 00 	mov    0x100(%rsp),%r9d
    50b7:	00 
    50b8:	48 c7 c0 ec ff ff ff 	mov    $0xffffffffffffffec,%rax
    50bf:	45 85 c9             	test   %r9d,%r9d
    50c2:	0f 84 d5 fe ff ff    	je     4f9d <__ctype_b_loc@plt+0x26ed>
    50c8:	44 8b 84 24 08 01 00 	mov    0x108(%rsp),%r8d
    50cf:	00 
    50d0:	45 85 c0             	test   %r8d,%r8d
    50d3:	74 38                	je     510d <__ctype_b_loc@plt+0x285d>
    50d5:	83 bc 24 10 01 00 00 	cmpl   $0x18,0x110(%rsp)
    50dc:	18 
    50dd:	7e 2e                	jle    510d <__ctype_b_loc@plt+0x285d>
    50df:	ba 01 00 00 00       	mov    $0x1,%edx
    50e4:	44 89 e1             	mov    %r12d,%ecx
    50e7:	48 8b 36             	mov    (%rsi),%rsi
    50ea:	31 c0                	xor    %eax,%eax
    50ec:	d3 e2                	shl    %cl,%edx
    50ee:	83 c2 01             	add    $0x1,%edx
    50f1:	48 63 d2             	movslq %edx,%rdx
    50f4:	48 c1 e2 03          	shl    $0x3,%rdx
    50f8:	0f 1f 84 00 00 00 00 	nopl   0x0(%rax,%rax,1)
    50ff:	00 
    5100:	0f 18 14 06          	prefetcht1 (%rsi,%rax,1)
    5104:	48 83 c0 40          	add    $0x40,%rax
    5108:	48 39 c2             	cmp    %rax,%rdx
    510b:	77 f3                	ja     5100 <__ctype_b_loc@plt+0x2850>
    510d:	31 c0                	xor    %eax,%eax
    510f:	e9 89 fe ff ff       	jmp    4f9d <__ctype_b_loc@plt+0x26ed>
    5114:	0f 1f 40 00          	nopl   0x0(%rax)
    5118:	48 c7 c0 ec ff ff ff 	mov    $0xffffffffffffffec,%rax
    511f:	e9 79 fe ff ff       	jmp    4f9d <__ctype_b_loc@plt+0x26ed>
    5124:	0f 1f 40 00          	nopl   0x0(%rax)
    5128:	48 83 ec 08          	sub    $0x8,%rsp
    512c:	4c 89 e9             	mov    %r13,%rcx
    512f:	4c 89 d6             	mov    %r10,%rsi
    5132:	4d 89 f0             	mov    %r14,%r8
    5135:	41 57                	push   %r15
    5137:	48 89 df             	mov    %rbx,%rdi
    513a:	e8 c1 f4 ff ff       	call   4600 <__ctype_b_loc@plt+0x1d50>
    513f:	59                   	pop    %rcx
    5140:	5e                   	pop    %rsi
    5141:	48 8b 04 24          	mov    (%rsp),%rax
    5145:	e9 fc fe ff ff       	jmp    5046 <__ctype_b_loc@plt+0x2796>
    514a:	e8 81 d4 ff ff       	call   25d0 <__stack_chk_fail@plt>
    514f:	90                   	nop
    5150:	41 55                	push   %r13
    5152:	41 54                	push   %r12
    5154:	55                   	push   %rbp
    5155:	48 81 ec 00 10 00 00 	sub    $0x1000,%rsp
    515c:	48 83 0c 24 00       	orq    $0x0,(%rsp)
    5161:	48 83 ec 10          	sub    $0x10,%rsp
    5165:	64 48 8b 04 25 28 00 	mov    %fs:0x28,%rax
    516c:	00 00 
    516e:	48 89 84 24 08 10 00 	mov    %rax,0x1008(%rsp)
    5175:	00 
    5176:	31 c0                	xor    %eax,%eax
    5178:	49 89 fc             	mov    %rdi,%r12
    517b:	48 89 f5             	mov    %rsi,%rbp
    517e:	84 d2                	test   %dl,%dl
    5180:	74 4e                	je     51d0 <__ctype_b_loc@plt+0x2920>
    5182:	49 89 e5             	mov    %rsp,%r13
    5185:	ba 00 10 00 00       	mov    $0x1000,%edx
    518a:	48 89 ef             	mov    %rbp,%rdi
    518d:	4c 89 ee             	mov    %r13,%rsi
    5190:	e8 eb d4 ff ff       	call   2680 <__realpath_chk@plt>
    5195:	48 85 c0             	test   %rax,%rax
    5198:	0f 84 27 d7 ff ff    	je     28c5 <__ctype_b_loc@plt+0x15>
    519e:	4c 89 ee             	mov    %r13,%rsi
    51a1:	4c 89 e7             	mov    %r12,%rdi
    51a4:	e8 57 d3 ff ff       	call   2500 <strcpy@plt>
    51a9:	48 8b 84 24 08 10 00 	mov    0x1008(%rsp),%rax
    51b0:	00 
    51b1:	64 48 2b 04 25 28 00 	sub    %fs:0x28,%rax
    51b8:	00 00 
    51ba:	0f 85 9c 00 00 00    	jne    525c <__ctype_b_loc@plt+0x29ac>
    51c0:	48 81 c4 10 10 00 00 	add    $0x1010,%rsp
    51c7:	5d                   	pop    %rbp
    51c8:	41 5c                	pop    %r12
    51ca:	41 5d                	pop    %r13
    51cc:	c3                   	ret    
    51cd:	0f 1f 00             	nopl   (%rax)
    51d0:	48 89 f7             	mov    %rsi,%rdi
    51d3:	e8 e8 d3 ff ff       	call   25c0 <strlen@plt>
    51d8:	48 3d 00 10 00 00    	cmp    $0x1000,%rax
    51de:	0f 87 e1 d6 ff ff    	ja     28c5 <__ctype_b_loc@plt+0x15>
    51e4:	4c 39 e5             	cmp    %r12,%rbp
    51e7:	74 c0                	je     51a9 <__ctype_b_loc@plt+0x28f9>
    51e9:	48 83 c0 01          	add    $0x1,%rax
    51ed:	83 f8 08             	cmp    $0x8,%eax
    51f0:	73 4e                	jae    5240 <__ctype_b_loc@plt+0x2990>
    51f2:	31 d2                	xor    %edx,%edx
    51f4:	a8 04                	test   $0x4,%al
    51f6:	75 30                	jne    5228 <__ctype_b_loc@plt+0x2978>
    51f8:	a8 02                	test   $0x2,%al
    51fa:	75 14                	jne    5210 <__ctype_b_loc@plt+0x2960>
    51fc:	a8 01                	test   $0x1,%al
    51fe:	74 a9                	je     51a9 <__ctype_b_loc@plt+0x28f9>
    5200:	0f b6 44 15 00       	movzbl 0x0(%rbp,%rdx,1),%eax
    5205:	41 88 04 14          	mov    %al,(%r12,%rdx,1)
    5209:	eb 9e                	jmp    51a9 <__ctype_b_loc@plt+0x28f9>
    520b:	0f 1f 44 00 00       	nopl   0x0(%rax,%rax,1)
    5210:	0f b7 4c 15 00       	movzwl 0x0(%rbp,%rdx,1),%ecx
    5215:	66 41 89 0c 14       	mov    %cx,(%r12,%rdx,1)
    521a:	48 83 c2 02          	add    $0x2,%rdx
    521e:	a8 01                	test   $0x1,%al
    5220:	74 87                	je     51a9 <__ctype_b_loc@plt+0x28f9>
    5222:	eb dc                	jmp    5200 <__ctype_b_loc@plt+0x2950>
    5224:	0f 1f 40 00          	nopl   0x0(%rax)
    5228:	8b 55 00             	mov    0x0(%rbp),%edx
    522b:	41 89 14 24          	mov    %edx,(%r12)
    522f:	ba 04 00 00 00       	mov    $0x4,%edx
    5234:	a8 02                	test   $0x2,%al
    5236:	74 c4                	je     51fc <__ctype_b_loc@plt+0x294c>
    5238:	eb d6                	jmp    5210 <__ctype_b_loc@plt+0x2960>
    523a:	66 0f 1f 44 00 00    	nopw   0x0(%rax,%rax,1)
    5240:	89 c1                	mov    %eax,%ecx
    5242:	4c 89 e7             	mov    %r12,%rdi
    5245:	48 89 ee             	mov    %rbp,%rsi
    5248:	31 d2                	xor    %edx,%edx
    524a:	c1 e9 03             	shr    $0x3,%ecx
    524d:	f3 48 a5             	rep movsq %ds:(%rsi),%es:(%rdi)
    5250:	48 89 f5             	mov    %rsi,%rbp
    5253:	49 89 fc             	mov    %rdi,%r12
    5256:	a8 04                	test   $0x4,%al
    5258:	74 9e                	je     51f8 <__ctype_b_loc@plt+0x2948>
    525a:	eb cc                	jmp    5228 <__ctype_b_loc@plt+0x2978>
    525c:	e8 6f d3 ff ff       	call   25d0 <__stack_chk_fail@plt>
    5261:	66 66 2e 0f 1f 84 00 	data16 cs nopw 0x0(%rax,%rax,1)
    5268:	00 00 00 00 
    526c:	0f 1f 40 00          	nopl   0x0(%rax)
    5270:	41 54                	push   %r12
    5272:	55                   	push   %rbp
    5273:	53                   	push   %rbx
    5274:	48 81 ec 00 10 00 00 	sub    $0x1000,%rsp
    527b:	48 83 0c 24 00       	orq    $0x0,(%rsp)
    5280:	48 83 ec 10          	sub    $0x10,%rsp
    5284:	b9 fe 01 00 00       	mov    $0x1fe,%ecx
    5289:	66 0f ef c0          	pxor   %xmm0,%xmm0
    528d:	64 48 8b 04 25 28 00 	mov    %fs:0x28,%rax
    5294:	00 00 
    5296:	48 89 84 24 08 10 00 	mov    %rax,0x1008(%rsp)
    529d:	00 
    529e:	31 c0                	xor    %eax,%eax
    52a0:	49 89 fc             	mov    %rdi,%r12
    52a3:	48 8d 7c 24 10       	lea    0x10(%rsp),%rdi
    52a8:	0f 29 04 24          	movaps %xmm0,(%rsp)
    52ac:	f3 48 ab             	rep stos %rax,%es:(%rdi)
    52af:	4c 89 e7             	mov    %r12,%rdi
    52b2:	e8 09 d3 ff ff       	call   25c0 <strlen@plt>
    52b7:	48 3d ff 0f 00 00    	cmp    $0xfff,%rax
    52bd:	0f 87 07 d6 ff ff    	ja     28ca <__ctype_b_loc@plt+0x1a>
    52c3:	48 89 e5             	mov    %rsp,%rbp
    52c6:	48 89 c3             	mov    %rax,%rbx
    52c9:	48 8d 50 01          	lea    0x1(%rax),%rdx
    52cd:	b9 00 10 00 00       	mov    $0x1000,%ecx
    52d2:	4c 89 e6             	mov    %r12,%rsi
    52d5:	48 89 ef             	mov    %rbp,%rdi
    52d8:	e8 f3 d3 ff ff       	call   26d0 <__memcpy_chk@plt>
    52dd:	48 8d 44 1d 00       	lea    0x0(%rbp,%rbx,1),%rax
    52e2:	48 39 e8             	cmp    %rbp,%rax
    52e5:	77 12                	ja     52f9 <__ctype_b_loc@plt+0x2a49>
    52e7:	eb 24                	jmp    530d <__ctype_b_loc@plt+0x2a5d>
    52e9:	0f 1f 80 00 00 00 00 	nopl   0x0(%rax)
    52f0:	48 83 e8 01          	sub    $0x1,%rax
    52f4:	48 39 e8             	cmp    %rbp,%rax
    52f7:	74 14                	je     530d <__ctype_b_loc@plt+0x2a5d>
    52f9:	80 38 2f             	cmpb   $0x2f,(%rax)
    52fc:	75 f2                	jne    52f0 <__ctype_b_loc@plt+0x2a40>
    52fe:	c6 00 00             	movb   $0x0,(%rax)
    5301:	48 89 ef             	mov    %rbp,%rdi
    5304:	e8 87 ec ff ff       	call   3f90 <__ctype_b_loc@plt+0x16e0>
    5309:	84 c0                	test   %al,%al
    530b:	74 23                	je     5330 <__ctype_b_loc@plt+0x2a80>
    530d:	48 8b 84 24 08 10 00 	mov    0x1008(%rsp),%rax
    5314:	00 
    5315:	64 48 2b 04 25 28 00 	sub    %fs:0x28,%rax
    531c:	00 00 
    531e:	75 22                	jne    5342 <__ctype_b_loc@plt+0x2a92>
    5320:	48 81 c4 10 10 00 00 	add    $0x1010,%rsp
    5327:	5b                   	pop    %rbx
    5328:	5d                   	pop    %rbp
    5329:	41 5c                	pop    %r12
    532b:	c3                   	ret    
    532c:	0f 1f 40 00          	nopl   0x0(%rax)
    5330:	48 89 ef             	mov    %rbp,%rdi
    5333:	e8 38 ff ff ff       	call   5270 <__ctype_b_loc@plt+0x29c0>
    5338:	48 89 ef             	mov    %rbp,%rdi
    533b:	e8 50 ec ff ff       	call   3f90 <__ctype_b_loc@plt+0x16e0>
    5340:	eb cb                	jmp    530d <__ctype_b_loc@plt+0x2a5d>
    5342:	e8 89 d2 ff ff       	call   25d0 <__stack_chk_fail@plt>
    5347:	66 0f 1f 84 00 00 00 	nopw   0x0(%rax,%rax,1)
    534e:	00 00 
    5350:	41 54                	push   %r12
    5352:	55                   	push   %rbp
    5353:	53                   	push   %rbx
    5354:	48 81 ec 00 10 00 00 	sub    $0x1000,%rsp
    535b:	48 83 0c 24 00       	orq    $0x0,(%rsp)
    5360:	48 83 ec 10          	sub    $0x10,%rsp
    5364:	4c 8d 25 f5 b4 02 00 	lea    0x2b4f5(%rip),%r12        # 30860 <stderr@GLIBC_2.2.5+0x8840>
    536b:	b9 fe 01 00 00       	mov    $0x1fe,%ecx
    5370:	66 0f ef c0          	pxor   %xmm0,%xmm0
    5374:	64 48 8b 04 25 28 00 	mov    %fs:0x28,%rax
    537b:	00 00 
    537d:	48 89 84 24 08 10 00 	mov    %rax,0x1008(%rsp)
    5384:	00 
    5385:	31 c0                	xor    %eax,%eax
    5387:	48 8d 7c 24 10       	lea    0x10(%rsp),%rdi
    538c:	0f 29 04 24          	movaps %xmm0,(%rsp)
    5390:	48 89 e5             	mov    %rsp,%rbp
    5393:	f3 48 ab             	rep stos %rax,%es:(%rdi)
    5396:	4c 89 e7             	mov    %r12,%rdi
    5399:	e8 22 d2 ff ff       	call   25c0 <strlen@plt>
    539e:	b9 00 10 00 00       	mov    $0x1000,%ecx
    53a3:	4c 89 e6             	mov    %r12,%rsi
    53a6:	48 89 ef             	mov    %rbp,%rdi
    53a9:	48 89 c3             	mov    %rax,%rbx
    53ac:	48 8d 50 01          	lea    0x1(%rax),%rdx
    53b0:	e8 1b d3 ff ff       	call   26d0 <__memcpy_chk@plt>
    53b5:	48 8d 44 1d 00       	lea    0x0(%rbp,%rbx,1),%rax
    53ba:	48 39 e8             	cmp    %rbp,%rax
    53bd:	77 12                	ja     53d1 <__ctype_b_loc@plt+0x2b21>
    53bf:	eb 24                	jmp    53e5 <__ctype_b_loc@plt+0x2b35>
    53c1:	0f 1f 80 00 00 00 00 	nopl   0x0(%rax)
    53c8:	48 83 e8 01          	sub    $0x1,%rax
    53cc:	48 39 e8             	cmp    %rbp,%rax
    53cf:	74 14                	je     53e5 <__ctype_b_loc@plt+0x2b35>
    53d1:	80 38 2f             	cmpb   $0x2f,(%rax)
    53d4:	75 f2                	jne    53c8 <__ctype_b_loc@plt+0x2b18>
    53d6:	c6 00 00             	movb   $0x0,(%rax)
    53d9:	48 89 ef             	mov    %rbp,%rdi
    53dc:	e8 af eb ff ff       	call   3f90 <__ctype_b_loc@plt+0x16e0>
    53e1:	84 c0                	test   %al,%al
    53e3:	74 23                	je     5408 <__ctype_b_loc@plt+0x2b58>
    53e5:	48 8b 84 24 08 10 00 	mov    0x1008(%rsp),%rax
    53ec:	00 
    53ed:	64 48 2b 04 25 28 00 	sub    %fs:0x28,%rax
    53f4:	00 00 
    53f6:	75 22                	jne    541a <__ctype_b_loc@plt+0x2b6a>
    53f8:	48 81 c4 10 10 00 00 	add    $0x1010,%rsp
    53ff:	5b                   	pop    %rbx
    5400:	5d                   	pop    %rbp
    5401:	41 5c                	pop    %r12
    5403:	c3                   	ret    
    5404:	0f 1f 40 00          	nopl   0x0(%rax)
    5408:	48 89 ef             	mov    %rbp,%rdi
    540b:	e8 60 fe ff ff       	call   5270 <__ctype_b_loc@plt+0x29c0>
    5410:	48 89 ef             	mov    %rbp,%rdi
    5413:	e8 78 eb ff ff       	call   3f90 <__ctype_b_loc@plt+0x16e0>
    5418:	eb cb                	jmp    53e5 <__ctype_b_loc@plt+0x2b35>
    541a:	e8 b1 d1 ff ff       	call   25d0 <__stack_chk_fail@plt>
    541f:	90                   	nop
    5420:	44 8b 42 04          	mov    0x4(%rdx),%r8d
    5424:	48 89 f0             	mov    %rsi,%rax
    5427:	8b 76 08             	mov    0x8(%rsi),%esi
    542a:	4c 8d 0d 2f cc 01 00 	lea    0x1cc2f(%rip),%r9        # 22060 <__ctype_b_loc@plt+0x1f7b0>
    5431:	4c 8b 18             	mov    (%rax),%r11
    5434:	44 01 c6             	add    %r8d,%esi
    5437:	89 f1                	mov    %esi,%ecx
    5439:	89 70 08             	mov    %esi,0x8(%rax)
    543c:	f7 d9                	neg    %ecx
    543e:	49 d3 eb             	shr    %cl,%r11
    5441:	4c 89 d9             	mov    %r11,%rcx
    5444:	43 23 0c 81          	and    (%r9,%r8,4),%ecx
    5448:	48 89 0f             	mov    %rcx,(%rdi)
    544b:	83 fe 40             	cmp    $0x40,%esi
    544e:	77 4e                	ja     549e <__ctype_b_loc@plt+0x2bee>
    5450:	48 8b 48 10          	mov    0x10(%rax),%rcx
    5454:	48 3b 48 20          	cmp    0x20(%rax),%rcx
    5458:	73 56                	jae    54b0 <__ctype_b_loc@plt+0x2c00>
    545a:	4c 8b 50 18          	mov    0x18(%rax),%r10
    545e:	4c 39 d1             	cmp    %r10,%rcx
    5461:	74 3b                	je     549e <__ctype_b_loc@plt+0x2bee>
    5463:	41 89 f0             	mov    %esi,%r8d
    5466:	49 89 c9             	mov    %rcx,%r9
    5469:	41 c1 e8 03          	shr    $0x3,%r8d
    546d:	45 89 c3             	mov    %r8d,%r11d
    5470:	4d 29 d9             	sub    %r11,%r9
    5473:	4d 39 ca             	cmp    %r9,%r10
    5476:	76 12                	jbe    548a <__ctype_b_loc@plt+0x2bda>
    5478:	49 89 c9             	mov    %rcx,%r9
    547b:	4d 29 d1             	sub    %r10,%r9
    547e:	45 89 ca             	mov    %r9d,%r10d
    5481:	45 89 c8             	mov    %r9d,%r8d
    5484:	4c 29 d1             	sub    %r10,%rcx
    5487:	49 89 c9             	mov    %rcx,%r9
    548a:	49 8b 09             	mov    (%r9),%rcx
    548d:	41 c1 e0 03          	shl    $0x3,%r8d
    5491:	4c 89 48 10          	mov    %r9,0x10(%rax)
    5495:	44 29 c6             	sub    %r8d,%esi
    5498:	89 70 08             	mov    %esi,0x8(%rax)
    549b:	48 89 08             	mov    %rcx,(%rax)
    549e:	48 83 c2 08          	add    $0x8,%rdx
    54a2:	48 89 57 08          	mov    %rdx,0x8(%rdi)
    54a6:	c3                   	ret    
    54a7:	66 0f 1f 84 00 00 00 	nopw   0x0(%rax,%rax,1)
    54ae:	00 00 
    54b0:	41 89 f0             	mov    %esi,%r8d
    54b3:	48 83 c2 08          	add    $0x8,%rdx
    54b7:	83 e6 07             	and    $0x7,%esi
    54ba:	41 c1 e8 03          	shr    $0x3,%r8d
    54be:	89 70 08             	mov    %esi,0x8(%rax)
    54c1:	4c 29 c1             	sub    %r8,%rcx
    54c4:	48 89 48 10          	mov    %rcx,0x10(%rax)
    54c8:	48 8b 09             	mov    (%rcx),%rcx
    54cb:	48 89 08             	mov    %rcx,(%rax)
    54ce:	48 89 57 08          	mov    %rdx,0x8(%rdi)
    54d2:	c3                   	ret    
    54d3:	66 66 2e 0f 1f 84 00 	data16 cs nopw 0x0(%rax,%rax,1)
    54da:	00 00 00 00 
    54de:	66 90                	xchg   %ax,%ax
    54e0:	41 57                	push   %r15
    54e2:	48 89 d0             	mov    %rdx,%rax
    54e5:	48 89 ca             	mov    %rcx,%rdx
    54e8:	4d 89 c2             	mov    %r8,%r10
    54eb:	41 56                	push   %r14
    54ed:	49 c7 c0 ec ff ff ff 	mov    $0xffffffffffffffec,%r8
    54f4:	41 55                	push   %r13
    54f6:	41 54                	push   %r12
    54f8:	55                   	push   %rbp
    54f9:	53                   	push   %rbx
    54fa:	48 81 ec 98 01 00 00 	sub    $0x198,%rsp
    5501:	48 89 74 24 20       	mov    %rsi,0x20(%rsp)
    5506:	64 48 8b 0c 25 28 00 	mov    %fs:0x28,%rcx
    550d:	00 00 
    550f:	48 89 8c 24 88 01 00 	mov    %rcx,0x188(%rsp)
    5516:	00 
    5517:	31 c9                	xor    %ecx,%ecx
    5519:	48 83 fa 09          	cmp    $0x9,%rdx
    551d:	76 29                	jbe    5548 <__ctype_b_loc@plt+0x2c98>
    551f:	44 0f b7 30          	movzwl (%rax),%r14d
    5523:	44 0f b7 68 02       	movzwl 0x2(%rax),%r13d
    5528:	4c 8d 62 fa          	lea    -0x6(%rdx),%r12
    552c:	0f b7 68 04          	movzwl 0x4(%rax),%ebp
    5530:	41 8b 1a             	mov    (%r10),%ebx
    5533:	4d 29 f4             	sub    %r14,%r12
    5536:	4d 29 ec             	sub    %r13,%r12
    5539:	49 29 ec             	sub    %rbp,%r12
    553c:	4c 39 e2             	cmp    %r12,%rdx
    553f:	73 37                	jae    5578 <__ctype_b_loc@plt+0x2cc8>
    5541:	49 c7 c0 ec ff ff ff 	mov    $0xffffffffffffffec,%r8
    5548:	48 8b 84 24 88 01 00 	mov    0x188(%rsp),%rax
    554f:	00 
    5550:	64 48 2b 04 25 28 00 	sub    %fs:0x28,%rax
    5557:	00 00 
    5559:	0f 85 f6 10 00 00    	jne    6655 <__ctype_b_loc@plt+0x3da5>
    555f:	48 81 c4 98 01 00 00 	add    $0x198,%rsp
    5566:	4c 89 c0             	mov    %r8,%rax
    5569:	5b                   	pop    %rbx
    556a:	5d                   	pop    %rbp
    556b:	41 5c                	pop    %r12
    556d:	41 5d                	pop    %r13
    556f:	41 5e                	pop    %r14
    5571:	41 5f                	pop    %r15
    5573:	c3                   	ret    
    5574:	0f 1f 40 00          	nopl   0x0(%rax)
    5578:	4c 8d 78 06          	lea    0x6(%rax),%r15
    557c:	49 89 fb             	mov    %rdi,%r11
    557f:	4c 89 f2             	mov    %r14,%rdx
    5582:	48 8d bc 24 d0 00 00 	lea    0xd0(%rsp),%rdi
    5589:	00 
    558a:	4c 89 fe             	mov    %r15,%rsi
    558d:	48 89 7c 24 58       	mov    %rdi,0x58(%rsp)
    5592:	e8 b9 e8 ff ff       	call   3e50 <__ctype_b_loc@plt+0x15a0>
    5597:	49 89 c0             	mov    %rax,%r8
    559a:	48 83 f8 88          	cmp    $0xffffffffffffff88,%rax
    559e:	77 a8                	ja     5548 <__ctype_b_loc@plt+0x2c98>
    55a0:	48 8d 84 24 00 01 00 	lea    0x100(%rsp),%rax
    55a7:	00 
    55a8:	4d 01 f7             	add    %r14,%r15
    55ab:	4c 89 ea             	mov    %r13,%rdx
    55ae:	4c 89 fe             	mov    %r15,%rsi
    55b1:	48 89 c7             	mov    %rax,%rdi
    55b4:	48 89 84 24 88 00 00 	mov    %rax,0x88(%rsp)
    55bb:	00 
    55bc:	e8 8f e8 ff ff       	call   3e50 <__ctype_b_loc@plt+0x15a0>
    55c1:	49 89 c0             	mov    %rax,%r8
    55c4:	48 83 f8 88          	cmp    $0xffffffffffffff88,%rax
    55c8:	0f 87 7a ff ff ff    	ja     5548 <__ctype_b_loc@plt+0x2c98>
    55ce:	48 8d 84 24 30 01 00 	lea    0x130(%rsp),%rax
    55d5:	00 
    55d6:	4d 01 ef             	add    %r13,%r15
    55d9:	48 89 ea             	mov    %rbp,%rdx
    55dc:	4c 89 fe             	mov    %r15,%rsi
    55df:	48 89 c7             	mov    %rax,%rdi
    55e2:	48 89 84 24 a0 00 00 	mov    %rax,0xa0(%rsp)
    55e9:	00 
    55ea:	e8 61 e8 ff ff       	call   3e50 <__ctype_b_loc@plt+0x15a0>
    55ef:	49 89 c0             	mov    %rax,%r8
    55f2:	48 83 f8 88          	cmp    $0xffffffffffffff88,%rax
    55f6:	0f 87 4c ff ff ff    	ja     5548 <__ctype_b_loc@plt+0x2c98>
    55fc:	48 8d 84 24 60 01 00 	lea    0x160(%rsp),%rax
    5603:	00 
    5604:	49 8d 34 2f          	lea    (%r15,%rbp,1),%rsi
    5608:	4c 89 e2             	mov    %r12,%rdx
    560b:	48 89 c7             	mov    %rax,%rdi
    560e:	48 89 84 24 c0 00 00 	mov    %rax,0xc0(%rsp)
    5615:	00 
    5616:	e8 35 e8 ff ff       	call   3e50 <__ctype_b_loc@plt+0x15a0>
    561b:	49 89 c0             	mov    %rax,%r8
    561e:	48 83 f8 88          	cmp    $0xffffffffffffff88,%rax
    5622:	0f 87 20 ff ff ff    	ja     5548 <__ctype_b_loc@plt+0x2c98>
    5628:	48 8b 7c 24 20       	mov    0x20(%rsp),%rdi
    562d:	c1 eb 10             	shr    $0x10,%ebx
    5630:	49 83 c2 04          	add    $0x4,%r10
    5634:	0f b6 cb             	movzbl %bl,%ecx
    5637:	49 8d 04 3b          	lea    (%r11,%rdi,1),%rax
    563b:	89 8c 24 9c 00 00 00 	mov    %ecx,0x9c(%rsp)
    5642:	48 8d 70 f9          	lea    -0x7(%rax),%rsi
    5646:	48 89 84 24 c8 00 00 	mov    %rax,0xc8(%rsp)
    564d:	00 
    564e:	48 8d 47 03          	lea    0x3(%rdi),%rax
    5652:	48 c1 e8 02          	shr    $0x2,%rax
    5656:	48 89 74 24 70       	mov    %rsi,0x70(%rsp)
    565b:	4d 8d 34 03          	lea    (%r11,%rax,1),%r14
    565f:	4d 8d 2c 06          	lea    (%r14,%rax,1),%r13
    5663:	4c 89 b4 24 b0 00 00 	mov    %r14,0xb0(%rsp)
    566a:	00 
    566b:	4c 01 e8             	add    %r13,%rax
    566e:	4c 89 ac 24 a8 00 00 	mov    %r13,0xa8(%rsp)
    5675:	00 
    5676:	48 89 84 24 b8 00 00 	mov    %rax,0xb8(%rsp)
    567d:	00 
    567e:	48 89 c3             	mov    %rax,%rbx
    5681:	48 39 c6             	cmp    %rax,%rsi
    5684:	0f 86 04 05 00 00    	jbe    5b8e <__ctype_b_loc@plt+0x32de>
    568a:	48 8b 84 24 00 01 00 	mov    0x100(%rsp),%rax
    5691:	00 
    5692:	c6 44 24 67 00       	movb   $0x0,0x67(%rsp)
    5697:	4c 89 f5             	mov    %r14,%rbp
    569a:	4c 8b bc 24 d0 00 00 	mov    0xd0(%rsp),%r15
    56a1:	00 
    56a2:	8b 94 24 d8 00 00 00 	mov    0xd8(%rsp),%edx
    56a9:	48 89 44 24 10       	mov    %rax,0x10(%rsp)
    56ae:	48 8b 84 24 30 01 00 	mov    0x130(%rsp),%rax
    56b5:	00 
    56b6:	4c 89 7c 24 08       	mov    %r15,0x8(%rsp)
    56bb:	8b bc 24 08 01 00 00 	mov    0x108(%rsp),%edi
    56c2:	4d 89 ef             	mov    %r13,%r15
    56c5:	48 89 44 24 18       	mov    %rax,0x18(%rsp)
    56ca:	48 8b 84 24 60 01 00 	mov    0x160(%rsp),%rax
    56d1:	00 
    56d2:	44 8b 84 24 38 01 00 	mov    0x138(%rsp),%r8d
    56d9:	00 
    56da:	8b b4 24 68 01 00 00 	mov    0x168(%rsp),%esi
    56e1:	48 89 44 24 28       	mov    %rax,0x28(%rsp)
    56e6:	48 8b 84 24 e0 00 00 	mov    0xe0(%rsp),%rax
    56ed:	00 
    56ee:	48 89 44 24 30       	mov    %rax,0x30(%rsp)
    56f3:	48 8b 84 24 f0 00 00 	mov    0xf0(%rsp),%rax
    56fa:	00 
    56fb:	48 89 44 24 68       	mov    %rax,0x68(%rsp)
    5700:	48 8b 84 24 10 01 00 	mov    0x110(%rsp),%rax
    5707:	00 
    5708:	48 89 44 24 38       	mov    %rax,0x38(%rsp)
    570d:	48 8b 84 24 20 01 00 	mov    0x120(%rsp),%rax
    5714:	00 
    5715:	48 89 44 24 78       	mov    %rax,0x78(%rsp)
    571a:	48 8b 84 24 40 01 00 	mov    0x140(%rsp),%rax
    5721:	00 
    5722:	48 89 44 24 40       	mov    %rax,0x40(%rsp)
    5727:	48 8b 84 24 50 01 00 	mov    0x150(%rsp),%rax
    572e:	00 
    572f:	48 89 84 24 80 00 00 	mov    %rax,0x80(%rsp)
    5736:	00 
    5737:	48 8b 84 24 70 01 00 	mov    0x170(%rsp),%rax
    573e:	00 
    573f:	48 89 44 24 50       	mov    %rax,0x50(%rsp)
    5744:	48 8b 84 24 80 01 00 	mov    0x180(%rsp),%rax
    574b:	00 
    574c:	48 89 84 24 90 00 00 	mov    %rax,0x90(%rsp)
    5753:	00 
    5754:	89 c8                	mov    %ecx,%eax
    5756:	f7 d8                	neg    %eax
    5758:	83 e0 3f             	and    $0x3f,%eax
    575b:	e9 ae 00 00 00       	jmp    580e <__ctype_b_loc@plt+0x2f5e>
    5760:	89 d1                	mov    %edx,%ecx
    5762:	4c 8b 74 24 38       	mov    0x38(%rsp),%r14
    5767:	83 e2 07             	and    $0x7,%edx
    576a:	c1 e9 03             	shr    $0x3,%ecx
    576d:	48 29 4c 24 30       	sub    %rcx,0x30(%rsp)
    5772:	48 8b 4c 24 30       	mov    0x30(%rsp),%rcx
    5777:	48 8b 09             	mov    (%rcx),%rcx
    577a:	48 89 4c 24 08       	mov    %rcx,0x8(%rsp)
    577f:	4c 39 74 24 78       	cmp    %r14,0x78(%rsp)
    5784:	0f 87 be 0c 00 00    	ja     6448 <__ctype_b_loc@plt+0x3b98>
    578a:	89 f9                	mov    %edi,%ecx
    578c:	4c 8b 74 24 40       	mov    0x40(%rsp),%r14
    5791:	83 e7 07             	and    $0x7,%edi
    5794:	c1 e9 03             	shr    $0x3,%ecx
    5797:	48 29 4c 24 38       	sub    %rcx,0x38(%rsp)
    579c:	48 8b 4c 24 38       	mov    0x38(%rsp),%rcx
    57a1:	48 8b 09             	mov    (%rcx),%rcx
    57a4:	48 89 4c 24 10       	mov    %rcx,0x10(%rsp)
    57a9:	4c 39 b4 24 80 00 00 	cmp    %r14,0x80(%rsp)
    57b0:	00 
    57b1:	0f 87 f9 0c 00 00    	ja     64b0 <__ctype_b_loc@plt+0x3c00>
    57b7:	44 89 c1             	mov    %r8d,%ecx
    57ba:	4c 8b 4c 24 50       	mov    0x50(%rsp),%r9
    57bf:	41 83 e0 07          	and    $0x7,%r8d
    57c3:	c1 e9 03             	shr    $0x3,%ecx
    57c6:	48 29 4c 24 40       	sub    %rcx,0x40(%rsp)
    57cb:	48 8b 4c 24 40       	mov    0x40(%rsp),%rcx
    57d0:	48 8b 09             	mov    (%rcx),%rcx
    57d3:	48 89 4c 24 18       	mov    %rcx,0x18(%rsp)
    57d8:	4c 39 8c 24 90 00 00 	cmp    %r9,0x90(%rsp)
    57df:	00 
    57e0:	0f 87 4a 0d 00 00    	ja     6530 <__ctype_b_loc@plt+0x3c80>
    57e6:	89 f1                	mov    %esi,%ecx
    57e8:	c6 44 24 67 01       	movb   $0x1,0x67(%rsp)
    57ed:	83 e6 07             	and    $0x7,%esi
    57f0:	c1 e9 03             	shr    $0x3,%ecx
    57f3:	49 29 c9             	sub    %rcx,%r9
    57f6:	49 8b 09             	mov    (%r9),%rcx
    57f9:	4c 89 4c 24 50       	mov    %r9,0x50(%rsp)
    57fe:	48 89 4c 24 28       	mov    %rcx,0x28(%rsp)
    5803:	48 39 5c 24 70       	cmp    %rbx,0x70(%rsp)
    5808:	0f 86 4c 0e 00 00    	jbe    665a <__ctype_b_loc@plt+0x3daa>
    580e:	4c 8b 4c 24 08       	mov    0x8(%rsp),%r9
    5813:	89 d1                	mov    %edx,%ecx
    5815:	49 d3 e1             	shl    %cl,%r9
    5818:	89 c1                	mov    %eax,%ecx
    581a:	49 d3 e9             	shr    %cl,%r9
    581d:	4b 8d 0c 8a          	lea    (%r10,%r9,4),%rcx
    5821:	44 0f b7 09          	movzwl (%rcx),%r9d
    5825:	66 45 89 0b          	mov    %r9w,(%r11)
    5829:	44 0f b6 71 02       	movzbl 0x2(%rcx),%r14d
    582e:	44 0f b6 69 03       	movzbl 0x3(%rcx),%r13d
    5833:	89 f9                	mov    %edi,%ecx
    5835:	41 01 d6             	add    %edx,%r14d
    5838:	48 8b 54 24 10       	mov    0x10(%rsp),%rdx
    583d:	4d 01 dd             	add    %r11,%r13
    5840:	48 d3 e2             	shl    %cl,%rdx
    5843:	89 c1                	mov    %eax,%ecx
    5845:	48 d3 ea             	shr    %cl,%rdx
    5848:	49 8d 14 92          	lea    (%r10,%rdx,4),%rdx
    584c:	0f b7 0a             	movzwl (%rdx),%ecx
    584f:	66 89 4d 00          	mov    %cx,0x0(%rbp)
    5853:	0f b6 4a 02          	movzbl 0x2(%rdx),%ecx
    5857:	44 0f b6 62 03       	movzbl 0x3(%rdx),%r12d
    585c:	48 8b 54 24 18       	mov    0x18(%rsp),%rdx
    5861:	01 cf                	add    %ecx,%edi
    5863:	44 89 c1             	mov    %r8d,%ecx
    5866:	48 d3 e2             	shl    %cl,%rdx
    5869:	89 c1                	mov    %eax,%ecx
    586b:	49 01 ec             	add    %rbp,%r12
    586e:	48 d3 ea             	shr    %cl,%rdx
    5871:	49 8d 14 92          	lea    (%r10,%rdx,4),%rdx
    5875:	0f b7 0a             	movzwl (%rdx),%ecx
    5878:	66 41 89 0f          	mov    %cx,(%r15)
    587c:	44 0f b6 5a 02       	movzbl 0x2(%rdx),%r11d
    5881:	89 f1                	mov    %esi,%ecx
    5883:	0f b6 6a 03          	movzbl 0x3(%rdx),%ebp
    5887:	45 01 c3             	add    %r8d,%r11d
    588a:	4c 8b 44 24 28       	mov    0x28(%rsp),%r8
    588f:	4c 01 fd             	add    %r15,%rbp
    5892:	4c 8b 7c 24 08       	mov    0x8(%rsp),%r15
    5897:	49 d3 e0             	shl    %cl,%r8
    589a:	89 c1                	mov    %eax,%ecx
    589c:	4c 89 c2             	mov    %r8,%rdx
    589f:	48 d3 ea             	shr    %cl,%rdx
    58a2:	49 8d 14 92          	lea    (%r10,%rdx,4),%rdx
    58a6:	0f b7 0a             	movzwl (%rdx),%ecx
    58a9:	66 89 0b             	mov    %cx,(%rbx)
    58ac:	0f b6 4a 02          	movzbl 0x2(%rdx),%ecx
    58b0:	44 0f b6 4a 03       	movzbl 0x3(%rdx),%r9d
    58b5:	4c 89 fa             	mov    %r15,%rdx
    58b8:	01 ce                	add    %ecx,%esi
    58ba:	44 89 f1             	mov    %r14d,%ecx
    58bd:	48 d3 e2             	shl    %cl,%rdx
    58c0:	89 c1                	mov    %eax,%ecx
    58c2:	49 01 d9             	add    %rbx,%r9
    58c5:	48 d3 ea             	shr    %cl,%rdx
    58c8:	49 8d 0c 92          	lea    (%r10,%rdx,4),%rcx
    58cc:	0f b7 11             	movzwl (%rcx),%edx
    58cf:	66 41 89 55 00       	mov    %dx,0x0(%r13)
    58d4:	0f b6 51 02          	movzbl 0x2(%rcx),%edx
    58d8:	0f b6 49 03          	movzbl 0x3(%rcx),%ecx
    58dc:	44 01 f2             	add    %r14d,%edx
    58df:	4c 8b 74 24 10       	mov    0x10(%rsp),%r14
    58e4:	49 01 cd             	add    %rcx,%r13
    58e7:	89 f9                	mov    %edi,%ecx
    58e9:	4d 89 f0             	mov    %r14,%r8
    58ec:	49 d3 e0             	shl    %cl,%r8
    58ef:	89 c1                	mov    %eax,%ecx
    58f1:	49 d3 e8             	shr    %cl,%r8
    58f4:	4b 8d 0c 82          	lea    (%r10,%r8,4),%rcx
    58f8:	44 0f b7 01          	movzwl (%rcx),%r8d
    58fc:	66 45 89 04 24       	mov    %r8w,(%r12)
    5901:	0f b6 59 02          	movzbl 0x2(%rcx),%ebx
    5905:	0f b6 49 03          	movzbl 0x3(%rcx),%ecx
    5909:	01 fb                	add    %edi,%ebx
    590b:	48 8b 7c 24 18       	mov    0x18(%rsp),%rdi
    5910:	49 01 cc             	add    %rcx,%r12
    5913:	44 89 d9             	mov    %r11d,%ecx
    5916:	48 d3 e7             	shl    %cl,%rdi
    5919:	89 c1                	mov    %eax,%ecx
    591b:	48 d3 ef             	shr    %cl,%rdi
    591e:	49 8d 0c ba          	lea    (%r10,%rdi,4),%rcx
    5922:	0f b7 39             	movzwl (%rcx),%edi
    5925:	66 89 7d 00          	mov    %di,0x0(%rbp)
    5929:	44 0f b6 41 02       	movzbl 0x2(%rcx),%r8d
    592e:	0f b6 49 03          	movzbl 0x3(%rcx),%ecx
    5932:	48 8b 7c 24 28       	mov    0x28(%rsp),%rdi
    5937:	45 01 d8             	add    %r11d,%r8d
    593a:	48 01 cd             	add    %rcx,%rbp
    593d:	89 f1                	mov    %esi,%ecx
    593f:	48 d3 e7             	shl    %cl,%rdi
    5942:	89 c1                	mov    %eax,%ecx
    5944:	48 d3 ef             	shr    %cl,%rdi
    5947:	49 8d 0c ba          	lea    (%r10,%rdi,4),%rcx
    594b:	0f b7 39             	movzwl (%rcx),%edi
    594e:	66 41 89 39          	mov    %di,(%r9)
    5952:	44 0f b6 59 02       	movzbl 0x2(%rcx),%r11d
    5957:	0f b6 49 03          	movzbl 0x3(%rcx),%ecx
    595b:	41 01 f3             	add    %esi,%r11d
    595e:	4c 89 fe             	mov    %r15,%rsi
    5961:	49 01 c9             	add    %rcx,%r9
    5964:	89 d1                	mov    %edx,%ecx
    5966:	48 d3 e6             	shl    %cl,%rsi
    5969:	89 c1                	mov    %eax,%ecx
    596b:	48 d3 ee             	shr    %cl,%rsi
    596e:	49 8d 0c b2          	lea    (%r10,%rsi,4),%rcx
    5972:	0f b7 31             	movzwl (%rcx),%esi
    5975:	66 41 89 75 00       	mov    %si,0x0(%r13)
    597a:	0f b6 79 02          	movzbl 0x2(%rcx),%edi
    597e:	01 d7                	add    %edx,%edi
    5980:	0f b6 51 03          	movzbl 0x3(%rcx),%edx
    5984:	89 d9                	mov    %ebx,%ecx
    5986:	49 01 d5             	add    %rdx,%r13
    5989:	4c 89 f2             	mov    %r14,%rdx
    598c:	4c 8b 74 24 28       	mov    0x28(%rsp),%r14
    5991:	48 d3 e2             	shl    %cl,%rdx
    5994:	89 c1                	mov    %eax,%ecx
    5996:	48 d3 ea             	shr    %cl,%rdx
    5999:	49 8d 14 92          	lea    (%r10,%rdx,4),%rdx
    599d:	0f b7 0a             	movzwl (%rdx),%ecx
    59a0:	66 41 89 0c 24       	mov    %cx,(%r12)
    59a5:	0f b6 72 02          	movzbl 0x2(%rdx),%esi
    59a9:	44 89 c1             	mov    %r8d,%ecx
    59ac:	0f b6 52 03          	movzbl 0x3(%rdx),%edx
    59b0:	01 de                	add    %ebx,%esi
    59b2:	48 8b 5c 24 18       	mov    0x18(%rsp),%rbx
    59b7:	49 01 d4             	add    %rdx,%r12
    59ba:	48 d3 e3             	shl    %cl,%rbx
    59bd:	89 c1                	mov    %eax,%ecx
    59bf:	48 89 da             	mov    %rbx,%rdx
    59c2:	48 d3 ea             	shr    %cl,%rdx
    59c5:	49 8d 14 92          	lea    (%r10,%rdx,4),%rdx
    59c9:	0f b7 0a             	movzwl (%rdx),%ecx
    59cc:	66 89 4d 00          	mov    %cx,0x0(%rbp)
    59d0:	44 0f b6 7a 02       	movzbl 0x2(%rdx),%r15d
    59d5:	44 89 d9             	mov    %r11d,%ecx
    59d8:	0f b6 52 03          	movzbl 0x3(%rdx),%edx
    59dc:	45 01 c7             	add    %r8d,%r15d
    59df:	48 8d 5c 15 00       	lea    0x0(%rbp,%rdx,1),%rbx
    59e4:	4c 89 f2             	mov    %r14,%rdx
    59e7:	48 d3 e2             	shl    %cl,%rdx
    59ea:	89 c1                	mov    %eax,%ecx
    59ec:	48 89 5c 24 48       	mov    %rbx,0x48(%rsp)
    59f1:	48 d3 ea             	shr    %cl,%rdx
    59f4:	49 8d 14 92          	lea    (%r10,%rdx,4),%rdx
    59f8:	0f b7 0a             	movzwl (%rdx),%ecx
    59fb:	66 41 89 09          	mov    %cx,(%r9)
    59ff:	0f b6 5a 02          	movzbl 0x2(%rdx),%ebx
    5a03:	89 f9                	mov    %edi,%ecx
    5a05:	0f b6 52 03          	movzbl 0x3(%rdx),%edx
    5a09:	44 01 db             	add    %r11d,%ebx
    5a0c:	49 01 d1             	add    %rdx,%r9
    5a0f:	48 8b 54 24 08       	mov    0x8(%rsp),%rdx
    5a14:	48 d3 e2             	shl    %cl,%rdx
    5a17:	89 c1                	mov    %eax,%ecx
    5a19:	48 d3 ea             	shr    %cl,%rdx
    5a1c:	49 8d 0c 92          	lea    (%r10,%rdx,4),%rcx
    5a20:	0f b7 11             	movzwl (%rcx),%edx
    5a23:	66 41 89 55 00       	mov    %dx,0x0(%r13)
    5a28:	0f b6 51 02          	movzbl 0x2(%rcx),%edx
    5a2c:	44 0f b6 59 03       	movzbl 0x3(%rcx),%r11d
    5a31:	89 f1                	mov    %esi,%ecx
    5a33:	01 fa                	add    %edi,%edx
    5a35:	48 8b 7c 24 10       	mov    0x10(%rsp),%rdi
    5a3a:	4d 01 eb             	add    %r13,%r11
    5a3d:	48 d3 e7             	shl    %cl,%rdi
    5a40:	89 c1                	mov    %eax,%ecx
    5a42:	48 d3 ef             	shr    %cl,%rdi
    5a45:	49 8d 0c ba          	lea    (%r10,%rdi,4),%rcx
    5a49:	44 0f b7 29          	movzwl (%rcx),%r13d
    5a4d:	66 45 89 2c 24       	mov    %r13w,(%r12)
    5a52:	0f b6 79 02          	movzbl 0x2(%rcx),%edi
    5a56:	0f b6 49 03          	movzbl 0x3(%rcx),%ecx
    5a5a:	01 f7                	add    %esi,%edi
    5a5c:	48 8b 74 24 18       	mov    0x18(%rsp),%rsi
    5a61:	49 8d 2c 0c          	lea    (%r12,%rcx,1),%rbp
    5a65:	44 89 f9             	mov    %r15d,%ecx
    5a68:	48 d3 e6             	shl    %cl,%rsi
    5a6b:	89 c1                	mov    %eax,%ecx
    5a6d:	48 d3 ee             	shr    %cl,%rsi
    5a70:	49 8d 0c b2          	lea    (%r10,%rsi,4),%rcx
    5a74:	48 8b 74 24 48       	mov    0x48(%rsp),%rsi
    5a79:	44 0f b7 01          	movzwl (%rcx),%r8d
    5a7d:	66 44 89 06          	mov    %r8w,(%rsi)
    5a81:	66 44 89 84 24 98 00 	mov    %r8w,0x98(%rsp)
    5a88:	00 00 
    5a8a:	44 0f b6 41 02       	movzbl 0x2(%rcx),%r8d
    5a8f:	0f b6 49 03          	movzbl 0x3(%rcx),%ecx
    5a93:	45 01 f8             	add    %r15d,%r8d
    5a96:	4c 8d 3c 0e          	lea    (%rsi,%rcx,1),%r15
    5a9a:	89 d9                	mov    %ebx,%ecx
    5a9c:	4c 89 f6             	mov    %r14,%rsi
    5a9f:	4c 8b 74 24 30       	mov    0x30(%rsp),%r14
    5aa4:	48 d3 e6             	shl    %cl,%rsi
    5aa7:	89 c1                	mov    %eax,%ecx
    5aa9:	48 d3 ee             	shr    %cl,%rsi
    5aac:	49 8d 0c b2          	lea    (%r10,%rsi,4),%rcx
    5ab0:	0f b7 31             	movzwl (%rcx),%esi
    5ab3:	66 41 89 31          	mov    %si,(%r9)
    5ab7:	66 89 b4 24 9a 00 00 	mov    %si,0x9a(%rsp)
    5abe:	00 
    5abf:	0f b6 71 02          	movzbl 0x2(%rcx),%esi
    5ac3:	01 de                	add    %ebx,%esi
    5ac5:	0f b6 59 03          	movzbl 0x3(%rcx),%ebx
    5ac9:	4c 01 cb             	add    %r9,%rbx
    5acc:	4c 39 74 24 68       	cmp    %r14,0x68(%rsp)
    5ad1:	0f 86 89 fc ff ff    	jbe    5760 <__ctype_b_loc@plt+0x2eb0>
    5ad7:	44 89 e8             	mov    %r13d,%eax
    5ada:	49 89 ee             	mov    %rbp,%r14
    5add:	48 8b 6c 24 48       	mov    0x48(%rsp),%rbp
    5ae2:	80 7c 24 67 00       	cmpb   $0x0,0x67(%rsp)
    5ae7:	66 41 89 04 24       	mov    %ax,(%r12)
    5aec:	0f b7 84 24 98 00 00 	movzwl 0x98(%rsp),%eax
    5af3:	00 
    5af4:	4d 89 fd             	mov    %r15,%r13
    5af7:	89 94 24 d8 00 00 00 	mov    %edx,0xd8(%rsp)
    5afe:	4c 8b 7c 24 08       	mov    0x8(%rsp),%r15
    5b03:	66 89 45 00          	mov    %ax,0x0(%rbp)
    5b07:	0f b7 84 24 9a 00 00 	movzwl 0x9a(%rsp),%eax
    5b0e:	00 
    5b0f:	89 bc 24 08 01 00 00 	mov    %edi,0x108(%rsp)
    5b16:	44 89 84 24 38 01 00 	mov    %r8d,0x138(%rsp)
    5b1d:	00 
    5b1e:	66 41 89 01          	mov    %ax,(%r9)
    5b22:	89 b4 24 68 01 00 00 	mov    %esi,0x168(%rsp)
    5b29:	74 63                	je     5b8e <__ctype_b_loc@plt+0x32de>
    5b2b:	48 8b 44 24 50       	mov    0x50(%rsp),%rax
    5b30:	48 89 84 24 70 01 00 	mov    %rax,0x170(%rsp)
    5b37:	00 
    5b38:	48 8b 44 24 40       	mov    0x40(%rsp),%rax
    5b3d:	4c 89 bc 24 d0 00 00 	mov    %r15,0xd0(%rsp)
    5b44:	00 
    5b45:	48 89 84 24 40 01 00 	mov    %rax,0x140(%rsp)
    5b4c:	00 
    5b4d:	48 8b 44 24 38       	mov    0x38(%rsp),%rax
    5b52:	48 89 84 24 10 01 00 	mov    %rax,0x110(%rsp)
    5b59:	00 
    5b5a:	48 8b 44 24 30       	mov    0x30(%rsp),%rax
    5b5f:	48 89 84 24 e0 00 00 	mov    %rax,0xe0(%rsp)
    5b66:	00 
    5b67:	48 8b 44 24 10       	mov    0x10(%rsp),%rax
    5b6c:	48 89 84 24 00 01 00 	mov    %rax,0x100(%rsp)
    5b73:	00 
    5b74:	48 8b 44 24 18       	mov    0x18(%rsp),%rax
    5b79:	48 89 84 24 30 01 00 	mov    %rax,0x130(%rsp)
    5b80:	00 
    5b81:	48 8b 44 24 28       	mov    0x28(%rsp),%rax
    5b86:	48 89 84 24 60 01 00 	mov    %rax,0x160(%rsp)
    5b8d:	00 
    5b8e:	48 8b bc 24 b0 00 00 	mov    0xb0(%rsp),%rdi
    5b95:	00 
    5b96:	4c 39 df             	cmp    %r11,%rdi
    5b99:	0f 92 c0             	setb   %al
    5b9c:	4c 39 b4 24 a8 00 00 	cmp    %r14,0xa8(%rsp)
    5ba3:	00 
    5ba4:	0f 92 c2             	setb   %dl
    5ba7:	08 d0                	or     %dl,%al
    5ba9:	0f 85 92 f9 ff ff    	jne    5541 <__ctype_b_loc@plt+0x2c91>
    5baf:	4c 39 ac 24 b8 00 00 	cmp    %r13,0xb8(%rsp)
    5bb6:	00 
    5bb7:	0f 82 84 f9 ff ff    	jb     5541 <__ctype_b_loc@plt+0x2c91>
    5bbd:	44 8b a4 24 9c 00 00 	mov    0x9c(%rsp),%r12d
    5bc4:	00 
    5bc5:	4c 8b 7c 24 58       	mov    0x58(%rsp),%r15
    5bca:	48 8d 6f f9          	lea    -0x7(%rdi),%rbp
    5bce:	41 f7 dc             	neg    %r12d
    5bd1:	e9 bc 00 00 00       	jmp    5c92 <__ctype_b_loc@plt+0x33e2>
    5bd6:	66 2e 0f 1f 84 00 00 	cs nopw 0x0(%rax,%rax,1)
    5bdd:	00 00 00 
    5be0:	49 39 eb             	cmp    %rbp,%r11
    5be3:	0f 83 b9 00 00 00    	jae    5ca2 <__ctype_b_loc@plt+0x33f2>
    5be9:	48 8b 94 24 d0 00 00 	mov    0xd0(%rsp),%rdx
    5bf0:	00 
    5bf1:	8b bc 24 d8 00 00 00 	mov    0xd8(%rsp),%edi
    5bf8:	48 89 d0             	mov    %rdx,%rax
    5bfb:	89 f9                	mov    %edi,%ecx
    5bfd:	48 d3 e0             	shl    %cl,%rax
    5c00:	44 89 e1             	mov    %r12d,%ecx
    5c03:	48 d3 e8             	shr    %cl,%rax
    5c06:	49 8d 04 82          	lea    (%r10,%rax,4),%rax
    5c0a:	0f b7 08             	movzwl (%rax),%ecx
    5c0d:	66 41 89 0b          	mov    %cx,(%r11)
    5c11:	0f b6 70 02          	movzbl 0x2(%rax),%esi
    5c15:	0f b6 40 03          	movzbl 0x3(%rax),%eax
    5c19:	01 fe                	add    %edi,%esi
    5c1b:	48 89 d7             	mov    %rdx,%rdi
    5c1e:	89 f1                	mov    %esi,%ecx
    5c20:	4c 01 d8             	add    %r11,%rax
    5c23:	48 d3 e7             	shl    %cl,%rdi
    5c26:	44 89 e1             	mov    %r12d,%ecx
    5c29:	48 d3 ef             	shr    %cl,%rdi
    5c2c:	49 8d 0c ba          	lea    (%r10,%rdi,4),%rcx
    5c30:	0f b7 39             	movzwl (%rcx),%edi
    5c33:	66 89 38             	mov    %di,(%rax)
    5c36:	0f b6 79 02          	movzbl 0x2(%rcx),%edi
    5c3a:	0f b6 49 03          	movzbl 0x3(%rcx),%ecx
    5c3e:	01 f7                	add    %esi,%edi
    5c40:	48 89 d6             	mov    %rdx,%rsi
    5c43:	48 01 c8             	add    %rcx,%rax
    5c46:	89 f9                	mov    %edi,%ecx
    5c48:	48 d3 e6             	shl    %cl,%rsi
    5c4b:	44 89 e1             	mov    %r12d,%ecx
    5c4e:	48 d3 ee             	shr    %cl,%rsi
    5c51:	49 8d 0c b2          	lea    (%r10,%rsi,4),%rcx
    5c55:	0f b7 31             	movzwl (%rcx),%esi
    5c58:	66 89 30             	mov    %si,(%rax)
    5c5b:	0f b6 71 02          	movzbl 0x2(%rcx),%esi
    5c5f:	0f b6 49 03          	movzbl 0x3(%rcx),%ecx
    5c63:	01 fe                	add    %edi,%esi
    5c65:	48 01 c8             	add    %rcx,%rax
    5c68:	89 f1                	mov    %esi,%ecx
    5c6a:	48 d3 e2             	shl    %cl,%rdx
    5c6d:	44 89 e1             	mov    %r12d,%ecx
    5c70:	48 d3 ea             	shr    %cl,%rdx
    5c73:	49 8d 14 92          	lea    (%r10,%rdx,4),%rdx
    5c77:	0f b7 0a             	movzwl (%rdx),%ecx
    5c7a:	66 89 08             	mov    %cx,(%rax)
    5c7d:	0f b6 4a 02          	movzbl 0x2(%rdx),%ecx
    5c81:	44 0f b6 5a 03       	movzbl 0x3(%rdx),%r11d
    5c86:	01 f1                	add    %esi,%ecx
    5c88:	89 8c 24 d8 00 00 00 	mov    %ecx,0xd8(%rsp)
    5c8f:	49 01 c3             	add    %rax,%r11
    5c92:	4c 89 ff             	mov    %r15,%rdi
    5c95:	e8 e6 d6 ff ff       	call   3380 <__ctype_b_loc@plt+0xad0>
    5c9a:	85 c0                	test   %eax,%eax
    5c9c:	0f 84 3e ff ff ff    	je     5be0 <__ctype_b_loc@plt+0x3330>
    5ca2:	48 8b 84 24 b0 00 00 	mov    0xb0(%rsp),%rax
    5ca9:	00 
    5caa:	44 8b a4 24 9c 00 00 	mov    0x9c(%rsp),%r12d
    5cb1:	00 
    5cb2:	4c 8b 7c 24 58       	mov    0x58(%rsp),%r15
    5cb7:	48 8d 68 fe          	lea    -0x2(%rax),%rbp
    5cbb:	41 f7 dc             	neg    %r12d
    5cbe:	eb 42                	jmp    5d02 <__ctype_b_loc@plt+0x3452>
    5cc0:	49 39 eb             	cmp    %rbp,%r11
    5cc3:	0f 87 98 00 00 00    	ja     5d61 <__ctype_b_loc@plt+0x34b1>
    5cc9:	8b 94 24 d8 00 00 00 	mov    0xd8(%rsp),%edx
    5cd0:	48 8b 84 24 d0 00 00 	mov    0xd0(%rsp),%rax
    5cd7:	00 
    5cd8:	89 d1                	mov    %edx,%ecx
    5cda:	48 d3 e0             	shl    %cl,%rax
    5cdd:	44 89 e1             	mov    %r12d,%ecx
    5ce0:	48 d3 e8             	shr    %cl,%rax
    5ce3:	49 8d 04 82          	lea    (%r10,%rax,4),%rax
    5ce7:	0f b7 08             	movzwl (%rax),%ecx
    5cea:	66 41 89 0b          	mov    %cx,(%r11)
    5cee:	0f b6 48 02          	movzbl 0x2(%rax),%ecx
    5cf2:	0f b6 40 03          	movzbl 0x3(%rax),%eax
    5cf6:	01 d1                	add    %edx,%ecx
    5cf8:	89 8c 24 d8 00 00 00 	mov    %ecx,0xd8(%rsp)
    5cff:	49 01 c3             	add    %rax,%r11
    5d02:	4c 89 ff             	mov    %r15,%rdi
    5d05:	e8 76 d6 ff ff       	call   3380 <__ctype_b_loc@plt+0xad0>
    5d0a:	85 c0                	test   %eax,%eax
    5d0c:	74 b2                	je     5cc0 <__ctype_b_loc@plt+0x3410>
    5d0e:	49 39 eb             	cmp    %rbp,%r11
    5d11:	77 4e                	ja     5d61 <__ctype_b_loc@plt+0x34b1>
    5d13:	8b b4 24 9c 00 00 00 	mov    0x9c(%rsp),%esi
    5d1a:	48 8b bc 24 d0 00 00 	mov    0xd0(%rsp),%rdi
    5d21:	00 
    5d22:	8b 94 24 d8 00 00 00 	mov    0xd8(%rsp),%edx
    5d29:	f7 de                	neg    %esi
    5d2b:	83 e6 3f             	and    $0x3f,%esi
    5d2e:	66 90                	xchg   %ax,%ax
    5d30:	89 d1                	mov    %edx,%ecx
    5d32:	48 89 f8             	mov    %rdi,%rax
    5d35:	48 d3 e0             	shl    %cl,%rax
    5d38:	89 f1                	mov    %esi,%ecx
    5d3a:	48 d3 e8             	shr    %cl,%rax
    5d3d:	49 8d 04 82          	lea    (%r10,%rax,4),%rax
    5d41:	0f b7 08             	movzwl (%rax),%ecx
    5d44:	66 41 89 0b          	mov    %cx,(%r11)
    5d48:	0f b6 48 02          	movzbl 0x2(%rax),%ecx
    5d4c:	0f b6 40 03          	movzbl 0x3(%rax),%eax
    5d50:	01 ca                	add    %ecx,%edx
    5d52:	49 01 c3             	add    %rax,%r11
    5d55:	49 39 eb             	cmp    %rbp,%r11
    5d58:	76 d6                	jbe    5d30 <__ctype_b_loc@plt+0x3480>
    5d5a:	89 94 24 d8 00 00 00 	mov    %edx,0xd8(%rsp)
    5d61:	4c 39 9c 24 b0 00 00 	cmp    %r11,0xb0(%rsp)
    5d68:	00 
    5d69:	76 50                	jbe    5dbb <__ctype_b_loc@plt+0x350b>
    5d6b:	8b 94 24 d8 00 00 00 	mov    0xd8(%rsp),%edx
    5d72:	48 8b 84 24 d0 00 00 	mov    0xd0(%rsp),%rax
    5d79:	00 
    5d7a:	89 d1                	mov    %edx,%ecx
    5d7c:	48 d3 e0             	shl    %cl,%rax
    5d7f:	8b 8c 24 9c 00 00 00 	mov    0x9c(%rsp),%ecx
    5d86:	f7 d9                	neg    %ecx
    5d88:	48 d3 e8             	shr    %cl,%rax
    5d8b:	49 8d 04 82          	lea    (%r10,%rax,4),%rax
    5d8f:	0f b6 08             	movzbl (%rax),%ecx
    5d92:	41 88 0b             	mov    %cl,(%r11)
    5d95:	80 78 03 01          	cmpb   $0x1,0x3(%rax)
    5d99:	0f 84 80 08 00 00    	je     661f <__ctype_b_loc@plt+0x3d6f>
    5d9f:	83 fa 3f             	cmp    $0x3f,%edx
    5da2:	77 17                	ja     5dbb <__ctype_b_loc@plt+0x350b>
    5da4:	0f b6 40 02          	movzbl 0x2(%rax),%eax
    5da8:	01 d0                	add    %edx,%eax
    5daa:	ba 40 00 00 00       	mov    $0x40,%edx
    5daf:	39 d0                	cmp    %edx,%eax
    5db1:	0f 47 c2             	cmova  %edx,%eax
    5db4:	89 84 24 d8 00 00 00 	mov    %eax,0xd8(%rsp)
    5dbb:	48 8b 84 24 a8 00 00 	mov    0xa8(%rsp),%rax
    5dc2:	00 
    5dc3:	8b ac 24 9c 00 00 00 	mov    0x9c(%rsp),%ebp
    5dca:	4c 8b a4 24 88 00 00 	mov    0x88(%rsp),%r12
    5dd1:	00 
    5dd2:	4c 8d 58 f9          	lea    -0x7(%rax),%r11
    5dd6:	f7 dd                	neg    %ebp
    5dd8:	e9 b1 00 00 00       	jmp    5e8e <__ctype_b_loc@plt+0x35de>
    5ddd:	0f 1f 00             	nopl   (%rax)
    5de0:	4d 39 de             	cmp    %r11,%r14
    5de3:	0f 83 b5 00 00 00    	jae    5e9e <__ctype_b_loc@plt+0x35ee>
    5de9:	48 8b 94 24 00 01 00 	mov    0x100(%rsp),%rdx
    5df0:	00 
    5df1:	8b bc 24 08 01 00 00 	mov    0x108(%rsp),%edi
    5df8:	48 89 d0             	mov    %rdx,%rax
    5dfb:	89 f9                	mov    %edi,%ecx
    5dfd:	48 d3 e0             	shl    %cl,%rax
    5e00:	89 e9                	mov    %ebp,%ecx
    5e02:	48 d3 e8             	shr    %cl,%rax
    5e05:	49 8d 04 82          	lea    (%r10,%rax,4),%rax
    5e09:	0f b7 08             	movzwl (%rax),%ecx
    5e0c:	66 41 89 0e          	mov    %cx,(%r14)
    5e10:	0f b6 70 02          	movzbl 0x2(%rax),%esi
    5e14:	0f b6 40 03          	movzbl 0x3(%rax),%eax
    5e18:	01 fe                	add    %edi,%esi
    5e1a:	48 89 d7             	mov    %rdx,%rdi
    5e1d:	89 f1                	mov    %esi,%ecx
    5e1f:	4c 01 f0             	add    %r14,%rax
    5e22:	48 d3 e7             	shl    %cl,%rdi
    5e25:	89 e9                	mov    %ebp,%ecx
    5e27:	48 d3 ef             	shr    %cl,%rdi
    5e2a:	49 8d 0c ba          	lea    (%r10,%rdi,4),%rcx
    5e2e:	0f b7 39             	movzwl (%rcx),%edi
    5e31:	66 89 38             	mov    %di,(%rax)
    5e34:	0f b6 79 02          	movzbl 0x2(%rcx),%edi
    5e38:	0f b6 49 03          	movzbl 0x3(%rcx),%ecx
    5e3c:	01 f7                	add    %esi,%edi
    5e3e:	48 89 d6             	mov    %rdx,%rsi
    5e41:	48 01 c8             	add    %rcx,%rax
    5e44:	89 f9                	mov    %edi,%ecx
    5e46:	48 d3 e6             	shl    %cl,%rsi
    5e49:	89 e9                	mov    %ebp,%ecx
    5e4b:	48 d3 ee             	shr    %cl,%rsi
    5e4e:	49 8d 0c b2          	lea    (%r10,%rsi,4),%rcx
    5e52:	0f b7 31             	movzwl (%rcx),%esi
    5e55:	66 89 30             	mov    %si,(%rax)
    5e58:	0f b6 71 02          	movzbl 0x2(%rcx),%esi
    5e5c:	0f b6 49 03          	movzbl 0x3(%rcx),%ecx
    5e60:	01 fe                	add    %edi,%esi
    5e62:	48 01 c8             	add    %rcx,%rax
    5e65:	89 f1                	mov    %esi,%ecx
    5e67:	48 d3 e2             	shl    %cl,%rdx
    5e6a:	89 e9                	mov    %ebp,%ecx
    5e6c:	48 d3 ea             	shr    %cl,%rdx
    5e6f:	49 8d 14 92          	lea    (%r10,%rdx,4),%rdx
    5e73:	0f b7 0a             	movzwl (%rdx),%ecx
    5e76:	66 89 08             	mov    %cx,(%rax)
    5e79:	0f b6 4a 02          	movzbl 0x2(%rdx),%ecx
    5e7d:	44 0f b6 72 03       	movzbl 0x3(%rdx),%r14d
    5e82:	01 f1                	add    %esi,%ecx
    5e84:	89 8c 24 08 01 00 00 	mov    %ecx,0x108(%rsp)
    5e8b:	49 01 c6             	add    %rax,%r14
    5e8e:	4c 89 e7             	mov    %r12,%rdi
    5e91:	e8 ea d4 ff ff       	call   3380 <__ctype_b_loc@plt+0xad0>
    5e96:	85 c0                	test   %eax,%eax
    5e98:	0f 84 42 ff ff ff    	je     5de0 <__ctype_b_loc@plt+0x3530>
    5e9e:	48 8b 84 24 a8 00 00 	mov    0xa8(%rsp),%rax
    5ea5:	00 
    5ea6:	8b ac 24 9c 00 00 00 	mov    0x9c(%rsp),%ebp
    5ead:	4c 8b a4 24 88 00 00 	mov    0x88(%rsp),%r12
    5eb4:	00 
    5eb5:	4c 8d 58 fe          	lea    -0x2(%rax),%r11
    5eb9:	f7 dd                	neg    %ebp
    5ebb:	eb 44                	jmp    5f01 <__ctype_b_loc@plt+0x3651>
    5ebd:	0f 1f 00             	nopl   (%rax)
    5ec0:	4d 39 de             	cmp    %r11,%r14
    5ec3:	0f 87 98 00 00 00    	ja     5f61 <__ctype_b_loc@plt+0x36b1>
    5ec9:	8b 94 24 08 01 00 00 	mov    0x108(%rsp),%edx
    5ed0:	48 8b 84 24 00 01 00 	mov    0x100(%rsp),%rax
    5ed7:	00 
    5ed8:	89 d1                	mov    %edx,%ecx
    5eda:	48 d3 e0             	shl    %cl,%rax
    5edd:	89 e9                	mov    %ebp,%ecx
    5edf:	48 d3 e8             	shr    %cl,%rax
    5ee2:	49 8d 04 82          	lea    (%r10,%rax,4),%rax
    5ee6:	0f b7 08             	movzwl (%rax),%ecx
    5ee9:	66 41 89 0e          	mov    %cx,(%r14)
    5eed:	0f b6 48 02          	movzbl 0x2(%rax),%ecx
    5ef1:	0f b6 40 03          	movzbl 0x3(%rax),%eax
    5ef5:	01 d1                	add    %edx,%ecx
    5ef7:	89 8c 24 08 01 00 00 	mov    %ecx,0x108(%rsp)
    5efe:	49 01 c6             	add    %rax,%r14
    5f01:	4c 89 e7             	mov    %r12,%rdi
    5f04:	e8 77 d4 ff ff       	call   3380 <__ctype_b_loc@plt+0xad0>
    5f09:	85 c0                	test   %eax,%eax
    5f0b:	74 b3                	je     5ec0 <__ctype_b_loc@plt+0x3610>
    5f0d:	4d 39 de             	cmp    %r11,%r14
    5f10:	77 4f                	ja     5f61 <__ctype_b_loc@plt+0x36b1>
    5f12:	8b b4 24 9c 00 00 00 	mov    0x9c(%rsp),%esi
    5f19:	48 8b bc 24 00 01 00 	mov    0x100(%rsp),%rdi
    5f20:	00 
    5f21:	8b 94 24 08 01 00 00 	mov    0x108(%rsp),%edx
    5f28:	f7 de                	neg    %esi
    5f2a:	83 e6 3f             	and    $0x3f,%esi
    5f2d:	0f 1f 00             	nopl   (%rax)
    5f30:	89 d1                	mov    %edx,%ecx
    5f32:	48 89 f8             	mov    %rdi,%rax
    5f35:	48 d3 e0             	shl    %cl,%rax
    5f38:	89 f1                	mov    %esi,%ecx
    5f3a:	48 d3 e8             	shr    %cl,%rax
    5f3d:	49 8d 04 82          	lea    (%r10,%rax,4),%rax
    5f41:	0f b7 08             	movzwl (%rax),%ecx
    5f44:	66 41 89 0e          	mov    %cx,(%r14)
    5f48:	0f b6 48 02          	movzbl 0x2(%rax),%ecx
    5f4c:	0f b6 40 03          	movzbl 0x3(%rax),%eax
    5f50:	01 ca                	add    %ecx,%edx
    5f52:	49 01 c6             	add    %rax,%r14
    5f55:	4d 39 de             	cmp    %r11,%r14
    5f58:	76 d6                	jbe    5f30 <__ctype_b_loc@plt+0x3680>
    5f5a:	89 94 24 08 01 00 00 	mov    %edx,0x108(%rsp)
    5f61:	4c 39 b4 24 a8 00 00 	cmp    %r14,0xa8(%rsp)
    5f68:	00 
    5f69:	76 50                	jbe    5fbb <__ctype_b_loc@plt+0x370b>
    5f6b:	8b 94 24 08 01 00 00 	mov    0x108(%rsp),%edx
    5f72:	48 8b 84 24 00 01 00 	mov    0x100(%rsp),%rax
    5f79:	00 
    5f7a:	89 d1                	mov    %edx,%ecx
    5f7c:	48 d3 e0             	shl    %cl,%rax
    5f7f:	8b 8c 24 9c 00 00 00 	mov    0x9c(%rsp),%ecx
    5f86:	f7 d9                	neg    %ecx
    5f88:	48 d3 e8             	shr    %cl,%rax
    5f8b:	49 8d 04 82          	lea    (%r10,%rax,4),%rax
    5f8f:	0f b6 08             	movzbl (%rax),%ecx
    5f92:	41 88 0e             	mov    %cl,(%r14)
    5f95:	80 78 03 01          	cmpb   $0x1,0x3(%rax)
    5f99:	0f 84 92 06 00 00    	je     6631 <__ctype_b_loc@plt+0x3d81>
    5f9f:	83 fa 3f             	cmp    $0x3f,%edx
    5fa2:	77 17                	ja     5fbb <__ctype_b_loc@plt+0x370b>
    5fa4:	0f b6 40 02          	movzbl 0x2(%rax),%eax
    5fa8:	01 d0                	add    %edx,%eax
    5faa:	ba 40 00 00 00       	mov    $0x40,%edx
    5faf:	39 d0                	cmp    %edx,%eax
    5fb1:	0f 47 c2             	cmova  %edx,%eax
    5fb4:	89 84 24 08 01 00 00 	mov    %eax,0x108(%rsp)
    5fbb:	48 8b 84 24 b8 00 00 	mov    0xb8(%rsp),%rax
    5fc2:	00 
    5fc3:	8b ac 24 9c 00 00 00 	mov    0x9c(%rsp),%ebp
    5fca:	4c 8b a4 24 a0 00 00 	mov    0xa0(%rsp),%r12
    5fd1:	00 
    5fd2:	4c 8d 58 f9          	lea    -0x7(%rax),%r11
    5fd6:	f7 dd                	neg    %ebp
    5fd8:	e9 b2 00 00 00       	jmp    608f <__ctype_b_loc@plt+0x37df>
    5fdd:	0f 1f 00             	nopl   (%rax)
    5fe0:	4d 39 dd             	cmp    %r11,%r13
    5fe3:	0f 83 b6 00 00 00    	jae    609f <__ctype_b_loc@plt+0x37ef>
    5fe9:	48 8b 94 24 30 01 00 	mov    0x130(%rsp),%rdx
    5ff0:	00 
    5ff1:	8b bc 24 38 01 00 00 	mov    0x138(%rsp),%edi
    5ff8:	48 89 d0             	mov    %rdx,%rax
    5ffb:	89 f9                	mov    %edi,%ecx
    5ffd:	48 d3 e0             	shl    %cl,%rax
    6000:	89 e9                	mov    %ebp,%ecx
    6002:	48 d3 e8             	shr    %cl,%rax
    6005:	49 8d 04 82          	lea    (%r10,%rax,4),%rax
    6009:	0f b7 08             	movzwl (%rax),%ecx
    600c:	66 41 89 4d 00       	mov    %cx,0x0(%r13)
    6011:	0f b6 70 02          	movzbl 0x2(%rax),%esi
    6015:	0f b6 40 03          	movzbl 0x3(%rax),%eax
    6019:	01 fe                	add    %edi,%esi
    601b:	48 89 d7             	mov    %rdx,%rdi
    601e:	89 f1                	mov    %esi,%ecx
    6020:	4c 01 e8             	add    %r13,%rax
    6023:	48 d3 e7             	shl    %cl,%rdi
    6026:	89 e9                	mov    %ebp,%ecx
    6028:	48 d3 ef             	shr    %cl,%rdi
    602b:	49 8d 0c ba          	lea    (%r10,%rdi,4),%rcx
    602f:	0f b7 39             	movzwl (%rcx),%edi
    6032:	66 89 38             	mov    %di,(%rax)
    6035:	0f b6 79 02          	movzbl 0x2(%rcx),%edi
    6039:	0f b6 49 03          	movzbl 0x3(%rcx),%ecx
    603d:	01 f7                	add    %esi,%edi
    603f:	48 89 d6             	mov    %rdx,%rsi
    6042:	48 01 c8             	add    %rcx,%rax
    6045:	89 f9                	mov    %edi,%ecx
    6047:	48 d3 e6             	shl    %cl,%rsi
    604a:	89 e9                	mov    %ebp,%ecx
    604c:	48 d3 ee             	shr    %cl,%rsi
    604f:	49 8d 0c b2          	lea    (%r10,%rsi,4),%rcx
    6053:	0f b7 31             	movzwl (%rcx),%esi
    6056:	66 89 30             	mov    %si,(%rax)
    6059:	0f b6 71 02          	movzbl 0x2(%rcx),%esi
    605d:	0f b6 49 03          	movzbl 0x3(%rcx),%ecx
    6061:	01 fe                	add    %edi,%esi
    6063:	48 01 c8             	add    %rcx,%rax
    6066:	89 f1                	mov    %esi,%ecx
    6068:	48 d3 e2             	shl    %cl,%rdx
    606b:	89 e9                	mov    %ebp,%ecx
    606d:	48 d3 ea             	shr    %cl,%rdx
    6070:	49 8d 14 92          	lea    (%r10,%rdx,4),%rdx
    6074:	0f b7 0a             	movzwl (%rdx),%ecx
    6077:	66 89 08             	mov    %cx,(%rax)
    607a:	0f b6 4a 02          	movzbl 0x2(%rdx),%ecx
    607e:	44 0f b6 6a 03       	movzbl 0x3(%rdx),%r13d
    6083:	01 f1                	add    %esi,%ecx
    6085:	89 8c 24 38 01 00 00 	mov    %ecx,0x138(%rsp)
    608c:	49 01 c5             	add    %rax,%r13
    608f:	4c 89 e7             	mov    %r12,%rdi
    6092:	e8 e9 d2 ff ff       	call   3380 <__ctype_b_loc@plt+0xad0>
    6097:	85 c0                	test   %eax,%eax
    6099:	0f 84 41 ff ff ff    	je     5fe0 <__ctype_b_loc@plt+0x3730>
    609f:	48 8b 84 24 b8 00 00 	mov    0xb8(%rsp),%rax
    60a6:	00 
    60a7:	8b ac 24 9c 00 00 00 	mov    0x9c(%rsp),%ebp
    60ae:	4c 8b a4 24 a0 00 00 	mov    0xa0(%rsp),%r12
    60b5:	00 
    60b6:	4c 8d 58 fe          	lea    -0x2(%rax),%r11
    60ba:	f7 dd                	neg    %ebp
    60bc:	eb 44                	jmp    6102 <__ctype_b_loc@plt+0x3852>
    60be:	66 90                	xchg   %ax,%ax
    60c0:	4d 39 dd             	cmp    %r11,%r13
    60c3:	0f 87 99 00 00 00    	ja     6162 <__ctype_b_loc@plt+0x38b2>
    60c9:	8b 94 24 38 01 00 00 	mov    0x138(%rsp),%edx
    60d0:	48 8b 84 24 30 01 00 	mov    0x130(%rsp),%rax
    60d7:	00 
    60d8:	89 d1                	mov    %edx,%ecx
    60da:	48 d3 e0             	shl    %cl,%rax
    60dd:	89 e9                	mov    %ebp,%ecx
    60df:	48 d3 e8             	shr    %cl,%rax
    60e2:	49 8d 04 82          	lea    (%r10,%rax,4),%rax
    60e6:	0f b7 08             	movzwl (%rax),%ecx
    60e9:	66 41 89 4d 00       	mov    %cx,0x0(%r13)
    60ee:	0f b6 48 02          	movzbl 0x2(%rax),%ecx
    60f2:	0f b6 40 03          	movzbl 0x3(%rax),%eax
    60f6:	01 d1                	add    %edx,%ecx
    60f8:	89 8c 24 38 01 00 00 	mov    %ecx,0x138(%rsp)
    60ff:	49 01 c5             	add    %rax,%r13
    6102:	4c 89 e7             	mov    %r12,%rdi
    6105:	e8 76 d2 ff ff       	call   3380 <__ctype_b_loc@plt+0xad0>
    610a:	85 c0                	test   %eax,%eax
    610c:	74 b2                	je     60c0 <__ctype_b_loc@plt+0x3810>
    610e:	4d 39 dd             	cmp    %r11,%r13
    6111:	77 4f                	ja     6162 <__ctype_b_loc@plt+0x38b2>
    6113:	8b b4 24 9c 00 00 00 	mov    0x9c(%rsp),%esi
    611a:	48 8b bc 24 30 01 00 	mov    0x130(%rsp),%rdi
    6121:	00 
    6122:	8b 94 24 38 01 00 00 	mov    0x138(%rsp),%edx
    6129:	f7 de                	neg    %esi
    612b:	83 e6 3f             	and    $0x3f,%esi
    612e:	66 90                	xchg   %ax,%ax
    6130:	89 d1                	mov    %edx,%ecx
    6132:	48 89 f8             	mov    %rdi,%rax
    6135:	48 d3 e0             	shl    %cl,%rax
    6138:	89 f1                	mov    %esi,%ecx
    613a:	48 d3 e8             	shr    %cl,%rax
    613d:	49 8d 04 82          	lea    (%r10,%rax,4),%rax
    6141:	0f b7 08             	movzwl (%rax),%ecx
    6144:	66 41 89 4d 00       	mov    %cx,0x0(%r13)
    6149:	0f b6 48 02          	movzbl 0x2(%rax),%ecx
    614d:	0f b6 40 03          	movzbl 0x3(%rax),%eax
    6151:	01 ca                	add    %ecx,%edx
    6153:	49 01 c5             	add    %rax,%r13
    6156:	4d 39 dd             	cmp    %r11,%r13
    6159:	76 d5                	jbe    6130 <__ctype_b_loc@plt+0x3880>
    615b:	89 94 24 38 01 00 00 	mov    %edx,0x138(%rsp)
    6162:	4c 39 ac 24 b8 00 00 	cmp    %r13,0xb8(%rsp)
    6169:	00 
    616a:	76 51                	jbe    61bd <__ctype_b_loc@plt+0x390d>
    616c:	8b 94 24 38 01 00 00 	mov    0x138(%rsp),%edx
    6173:	48 8b 84 24 30 01 00 	mov    0x130(%rsp),%rax
    617a:	00 
    617b:	89 d1                	mov    %edx,%ecx
    617d:	48 d3 e0             	shl    %cl,%rax
    6180:	8b 8c 24 9c 00 00 00 	mov    0x9c(%rsp),%ecx
    6187:	f7 d9                	neg    %ecx
    6189:	48 d3 e8             	shr    %cl,%rax
    618c:	49 8d 04 82          	lea    (%r10,%rax,4),%rax
    6190:	0f b6 08             	movzbl (%rax),%ecx
    6193:	41 88 4d 00          	mov    %cl,0x0(%r13)
    6197:	80 78 03 01          	cmpb   $0x1,0x3(%rax)
    619b:	0f 84 a2 04 00 00    	je     6643 <__ctype_b_loc@plt+0x3d93>
    61a1:	83 fa 3f             	cmp    $0x3f,%edx
    61a4:	77 17                	ja     61bd <__ctype_b_loc@plt+0x390d>
    61a6:	0f b6 40 02          	movzbl 0x2(%rax),%eax
    61aa:	01 d0                	add    %edx,%eax
    61ac:	ba 40 00 00 00       	mov    $0x40,%edx
    61b1:	39 d0                	cmp    %edx,%eax
    61b3:	0f 47 c2             	cmova  %edx,%eax
    61b6:	89 84 24 38 01 00 00 	mov    %eax,0x138(%rsp)
    61bd:	44 8b 9c 24 9c 00 00 	mov    0x9c(%rsp),%r11d
    61c4:	00 
    61c5:	4c 8b 64 24 70       	mov    0x70(%rsp),%r12
    61ca:	48 8b ac 24 c0 00 00 	mov    0xc0(%rsp),%rbp
    61d1:	00 
    61d2:	41 f7 db             	neg    %r11d
    61d5:	e9 b6 00 00 00       	jmp    6290 <__ctype_b_loc@plt+0x39e0>
    61da:	66 0f 1f 44 00 00    	nopw   0x0(%rax,%rax,1)
    61e0:	49 39 dc             	cmp    %rbx,%r12
    61e3:	0f 86 b7 00 00 00    	jbe    62a0 <__ctype_b_loc@plt+0x39f0>
    61e9:	48 8b 94 24 60 01 00 	mov    0x160(%rsp),%rdx
    61f0:	00 
    61f1:	8b bc 24 68 01 00 00 	mov    0x168(%rsp),%edi
    61f8:	48 89 d0             	mov    %rdx,%rax
    61fb:	89 f9                	mov    %edi,%ecx
    61fd:	48 d3 e0             	shl    %cl,%rax
    6200:	44 89 d9             	mov    %r11d,%ecx
    6203:	48 d3 e8             	shr    %cl,%rax
    6206:	49 8d 04 82          	lea    (%r10,%rax,4),%rax
    620a:	0f b7 08             	movzwl (%rax),%ecx
    620d:	66 89 0b             	mov    %cx,(%rbx)
    6210:	0f b6 70 02          	movzbl 0x2(%rax),%esi
    6214:	0f b6 40 03          	movzbl 0x3(%rax),%eax
    6218:	01 fe                	add    %edi,%esi
    621a:	48 89 d7             	mov    %rdx,%rdi
    621d:	89 f1                	mov    %esi,%ecx
    621f:	48 01 d8             	add    %rbx,%rax
    6222:	48 d3 e7             	shl    %cl,%rdi
    6225:	44 89 d9             	mov    %r11d,%ecx
    6228:	48 d3 ef             	shr    %cl,%rdi
    622b:	49 8d 0c ba          	lea    (%r10,%rdi,4),%rcx
    622f:	0f b7 39             	movzwl (%rcx),%edi
    6232:	66 89 38             	mov    %di,(%rax)
    6235:	0f b6 79 02          	movzbl 0x2(%rcx),%edi
    6239:	0f b6 49 03          	movzbl 0x3(%rcx),%ecx
    623d:	01 f7                	add    %esi,%edi
    623f:	48 89 d6             	mov    %rdx,%rsi
    6242:	48 01 c8             	add    %rcx,%rax
    6245:	89 f9                	mov    %edi,%ecx
    6247:	48 d3 e6             	shl    %cl,%rsi
    624a:	44 89 d9             	mov    %r11d,%ecx
    624d:	48 d3 ee             	shr    %cl,%rsi
    6250:	49 8d 0c b2          	lea    (%r10,%rsi,4),%rcx
    6254:	0f b7 31             	movzwl (%rcx),%esi
    6257:	66 89 30             	mov    %si,(%rax)
    625a:	0f b6 71 02          	movzbl 0x2(%rcx),%esi
    625e:	0f b6 49 03          	movzbl 0x3(%rcx),%ecx
    6262:	01 fe                	add    %edi,%esi
    6264:	48 01 c8             	add    %rcx,%rax
    6267:	89 f1                	mov    %esi,%ecx
    6269:	48 d3 e2             	shl    %cl,%rdx
    626c:	44 89 d9             	mov    %r11d,%ecx
    626f:	48 d3 ea             	shr    %cl,%rdx
    6272:	49 8d 14 92          	lea    (%r10,%rdx,4),%rdx
    6276:	0f b7 0a             	movzwl (%rdx),%ecx
    6279:	66 89 08             	mov    %cx,(%rax)
    627c:	0f b6 4a 02          	movzbl 0x2(%rdx),%ecx
    6280:	0f b6 5a 03          	movzbl 0x3(%rdx),%ebx
    6284:	01 f1                	add    %esi,%ecx
    6286:	89 8c 24 68 01 00 00 	mov    %ecx,0x168(%rsp)
    628d:	48 01 c3             	add    %rax,%rbx
    6290:	48 89 ef             	mov    %rbp,%rdi
    6293:	e8 e8 d0 ff ff       	call   3380 <__ctype_b_loc@plt+0xad0>
    6298:	85 c0                	test   %eax,%eax
    629a:	0f 84 40 ff ff ff    	je     61e0 <__ctype_b_loc@plt+0x3930>
    62a0:	48 8b 84 24 c8 00 00 	mov    0xc8(%rsp),%rax
    62a7:	00 
    62a8:	8b ac 24 9c 00 00 00 	mov    0x9c(%rsp),%ebp
    62af:	4c 8b a4 24 c0 00 00 	mov    0xc0(%rsp),%r12
    62b6:	00 
    62b7:	4c 8d 58 fe          	lea    -0x2(%rax),%r11
    62bb:	f7 dd                	neg    %ebp
    62bd:	eb 41                	jmp    6300 <__ctype_b_loc@plt+0x3a50>
    62bf:	90                   	nop
    62c0:	4c 39 db             	cmp    %r11,%rbx
    62c3:	0f 87 97 00 00 00    	ja     6360 <__ctype_b_loc@plt+0x3ab0>
    62c9:	8b 94 24 68 01 00 00 	mov    0x168(%rsp),%edx
    62d0:	48 8b 84 24 60 01 00 	mov    0x160(%rsp),%rax
    62d7:	00 
    62d8:	89 d1                	mov    %edx,%ecx
    62da:	48 d3 e0             	shl    %cl,%rax
    62dd:	89 e9                	mov    %ebp,%ecx
    62df:	48 d3 e8             	shr    %cl,%rax
    62e2:	49 8d 04 82          	lea    (%r10,%rax,4),%rax
    62e6:	0f b7 08             	movzwl (%rax),%ecx
    62e9:	66 89 0b             	mov    %cx,(%rbx)
    62ec:	0f b6 48 02          	movzbl 0x2(%rax),%ecx
    62f0:	0f b6 40 03          	movzbl 0x3(%rax),%eax
    62f4:	01 d1                	add    %edx,%ecx
    62f6:	89 8c 24 68 01 00 00 	mov    %ecx,0x168(%rsp)
    62fd:	48 01 c3             	add    %rax,%rbx
    6300:	4c 89 e7             	mov    %r12,%rdi
    6303:	e8 78 d0 ff ff       	call   3380 <__ctype_b_loc@plt+0xad0>
    6308:	85 c0                	test   %eax,%eax
    630a:	74 b4                	je     62c0 <__ctype_b_loc@plt+0x3a10>
    630c:	4c 39 db             	cmp    %r11,%rbx
    630f:	77 4f                	ja     6360 <__ctype_b_loc@plt+0x3ab0>
    6311:	8b bc 24 9c 00 00 00 	mov    0x9c(%rsp),%edi
    6318:	4c 8b 84 24 60 01 00 	mov    0x160(%rsp),%r8
    631f:	00 
    6320:	8b 94 24 68 01 00 00 	mov    0x168(%rsp),%edx
    6327:	f7 df                	neg    %edi
    6329:	83 e7 3f             	and    $0x3f,%edi
    632c:	0f 1f 40 00          	nopl   0x0(%rax)
    6330:	89 d1                	mov    %edx,%ecx
    6332:	4c 89 c0             	mov    %r8,%rax
    6335:	48 d3 e0             	shl    %cl,%rax
    6338:	89 f9                	mov    %edi,%ecx
    633a:	48 d3 e8             	shr    %cl,%rax
    633d:	49 8d 04 82          	lea    (%r10,%rax,4),%rax
    6341:	0f b7 08             	movzwl (%rax),%ecx
    6344:	66 89 0b             	mov    %cx,(%rbx)
    6347:	0f b6 48 02          	movzbl 0x2(%rax),%ecx
    634b:	0f b6 40 03          	movzbl 0x3(%rax),%eax
    634f:	01 ca                	add    %ecx,%edx
    6351:	48 01 c3             	add    %rax,%rbx
    6354:	4c 39 db             	cmp    %r11,%rbx
    6357:	76 d7                	jbe    6330 <__ctype_b_loc@plt+0x3a80>
    6359:	89 94 24 68 01 00 00 	mov    %edx,0x168(%rsp)
    6360:	48 39 9c 24 c8 00 00 	cmp    %rbx,0xc8(%rsp)
    6367:	00 
    6368:	76 4f                	jbe    63b9 <__ctype_b_loc@plt+0x3b09>
